(dp1
S'OriginalConfig'
p2
ccopy_reg
_reconstructor
p3
(cWMCore.Configuration
Configuration
p4
c__builtin__
object
p5
NtRp6
(dp7
S'Site'
p8
g3
(cWMCore.Configuration
ConfigSection
p9
g5
NtRp10
(dp11
S'_internal_skipChecks'
p12
I00
sS'_internal_documentation'
p13
S''
sS'_internal_settings'
p14
c__builtin__
set
p15
((lp16
S'blacklist'
p17
aS'storageSite'
p18
atRp19
sS'_internal_name'
p20
g8
sS'_internal_docstrings'
p21
(dp22
sg17
(lp23
S'T1_RU_JINR'
p24
aS'T2_US_Vanderbilt'
p25
asS'_internal_children'
p26
g15
((ltRp27
sg18
S'T3_US_FNALLPC'
p28
sS'_internal_parent_ref'
p29
NsbsS'_internal_sections'
p30
(lp31
S'General'
p32
aS'JobType'
p33
aS'Data'
p34
ag8
asg32
g3
(g9
g5
NtRp35
(dp36
S'transferLogs'
p37
I00
sg12
I00
sg13
S''
sg14
g15
((lp38
g37
aS'workArea'
p39
aS'requestName'
p40
atRp41
sg20
g32
sg21
(dp42
sg26
g15
((ltRp43
sg40
S'ADDGravToGG_MS-4000_NED-4_KK-1_M-2000To4000_13TeV-sherpa__80XMiniAODv2__MINIAODSIM'
p44
sg29
Nsg39
S'out_crab_data'
p45
sbsS'_internal_webapps'
p46
(lp47
sS'_internal_components'
p48
(lp49
sg34
g3
(g9
g5
NtRp50
(dp51
S'inputDataset'
p52
S'/ADDGravToGG_MS-4000_NED-4_KK-1_M-2000To4000_13TeV-sherpa/RunIISummer16MiniAODv2-PUMoriond17_80X_mcRun2_asymptotic_2016_TrancheIV_v6-v1/MINIAODSIM'
p53
sg12
I00
sS'splitting'
p54
S'FileBased'
p55
sS'unitsPerJob'
p56
I5
sg13
S''
sg14
g15
((lp57
g52
ag56
ag54
aS'inputDBS'
p58
aS'outLFNDirBase'
p59
atRp60
sg20
g34
sg58
S'global'
p61
sg21
(dp62
sg26
g15
((ltRp63
sg59
S'/store/user/ciperez/ADDGravToGGSherpa'
p64
sg29
Nsbsg33
g3
(g9
g5
NtRp65
(dp66
g12
I00
sS'pyCfgParams'
p67
(lp68
S'nEventsSample=99683'
p69
aS'outputFile=out_ADDGravToGG_MS-4000_NED-4_KK-1_M-2000To4000_13TeV-sherpa_RunIISummer16MiniAODv2-PUMoriond17_80X_mcRun2_asymptotic_2016_TrancheIV_v6-v1.root'
p70
asg13
S''
sg14
g15
((lp71
S'psetName'
p72
aS'pluginName'
p73
ag67
atRp74
sg20
g33
sg21
(dp75
sg73
S'Analysis'
p76
sg26
g15
((ltRp77
sg72
S'/afs/cern.ch/user/c/ciperez/CMSSW_8_0_25/src/diphoton-analysis/ExoDiPhotonAnalyzer/test/diphoton_cfg.py'
p78
sg29
NsbsbsS'voGroup'
p79
S''
sS'Server'
p80
S'cmsweb.cern.ch'
p81
sS'instance'
p82
S'prod'
p83
sS'RequestName'
p84
V180517_193438:ciperez_crab_ADDGravToGG_MS-4000_NED-4_KK-1_M-2000To4000_13TeV-sherpa__80XMiniAODv2__MINIAODSIM
p85
sS'voRole'
p86
S'NULL'
p87
sS'Port'
p88
S''
s.