ccopy_reg
_reconstructor
p0
(cFWCore.ParameterSet.Config
Process
p1
c__builtin__
object
p2
Ntp3
Rp4
(dp5
S'CaloGeometryBuilder'
p6
g0
(cFWCore.ParameterSet.Modules
ESProducer
p7
g2
Ntp8
Rp9
(dp10
S'_Parameterizable__parameterNames'
p11
(lp12
S'SelectedCalos'
p13
asS'_isFrozen'
p14
I00
sS'_isModified'
p15
I00
sS'_lineNumber'
p16
I40
sS'_filename'
p17
S'/cvmfs/cms.cern.ch/slc6_amd64_gcc530/cms/cmssw/CMSSW_8_0_25/python/FWCore/ParameterSet/Modules.py'
p18
sg13
g0
(cFWCore.ParameterSet.Types
vstring
p19
c__builtin__
list
p20
(lp21
S'HCAL'
p22
aS'ZDC'
p23
aS'CASTOR'
p24
aS'EcalBarrel'
p25
aS'EcalEndcap'
p26
aS'EcalPreshower'
p27
aS'TOWER'
p28
atp29
Rp30
(dp31
g14
I00
sS'_ParameterTypeBase__isTracked'
p32
I01
sg15
I00
sS'_nPerLine'
p33
I1
sbsS'_Labelable__label'
p34
g6
sS'_TypedParameterizable__type'
p35
g6
sbsS'_Process__sequences'
p36
(dp37
S'egmPhotonIDSequence'
p38
g0
(cFWCore.ParameterSet.SequenceTypes
Sequence
p39
g2
Ntp40
Rp41
(dp42
g14
I00
sS'_seq'
p43
g0
(cFWCore.ParameterSet.SequenceTypes
_SequenceCollection
p44
g2
Ntp45
Rp46
(dp47
S'_collection'
p48
(lp49
g0
(cFWCore.ParameterSet.Modules
EDProducer
p50
g2
Ntp51
Rp52
(dp53
g11
(lp54
S'src'
p55
aS'srcMiniAOD'
p56
aS'esReducedRecHitCollection'
p57
aS'eeReducedRecHitCollection'
p58
aS'pfCandidates'
p59
aS'vertices'
p60
aS'ebReducedRecHitCollectionMiniAOD'
p61
aS'eeReducedRecHitCollectionMiniAOD'
p62
aS'esReducedRecHitCollectionMiniAOD'
p63
aS'pfCandidatesMiniAOD'
p64
aS'verticesMiniAOD'
p65
aS'ebReducedRecHitCollection'
p66
aS'particleBasedIsolation'
p67
asg14
I00
sg56
g0
(cFWCore.ParameterSet.Types
InputTag
p68
g2
Ntp69
Rp70
(dp71
g14
I00
sg32
I01
sg15
I00
sS'_InputTag__moduleLabel'
p72
S'slimmedPhotons'
p73
sS'_InputTag__processName'
p74
S'@skipCurrentProcess'
p75
sS'_InputTag__productInstance'
p76
S''
p77
sbsg15
I00
sg55
g0
(g68
g2
Ntp78
Rp79
(dp80
g14
I00
sg32
I01
sg15
I00
sg72
S'gedPhotons'
p81
sg74
g77
sg76
g77
sbsg59
g0
(g68
g2
Ntp82
Rp83
(dp84
g14
I00
sg32
I01
sg15
I00
sg72
S'particleFlow'
p85
sg74
g77
sg76
g77
sbsg58
g0
(g68
g2
Ntp86
Rp87
(dp88
g14
I00
sg32
I01
sg15
I00
sg72
S'reducedEcalRecHitsEE'
p89
sg74
g77
sg76
g77
sbsg60
g0
(g68
g2
Ntp90
Rp91
(dp92
g14
I00
sg32
I01
sg15
I00
sg72
S'offlinePrimaryVertices'
p93
sg74
g77
sg76
g77
sbsg61
g0
(g68
g2
Ntp94
Rp95
(dp96
g14
I00
sg32
I01
sg15
I00
sg72
S'reducedEgamma'
p97
sg74
g77
sg76
S'reducedEBRecHits'
p98
sbsg62
g0
(g68
g2
Ntp99
Rp100
(dp101
g14
I00
sg32
I01
sg15
I00
sg72
S'reducedEgamma'
p102
sg74
g77
sg76
S'reducedEERecHits'
p103
sbsg34
S'photonIDValueMapProducer'
p104
sg63
g0
(g68
g2
Ntp105
Rp106
(dp107
g14
I00
sg32
I01
sg15
I00
sg72
S'reducedEgamma'
p108
sg74
g77
sg76
S'reducedESRecHits'
p109
sbsg16
I24
sg67
g0
(g68
g2
Ntp110
Rp111
(dp112
g14
I00
sg32
I01
sg15
I00
sg72
g67
sg74
g77
sg76
g81
sbsg57
g0
(g68
g2
Ntp113
Rp114
(dp115
g14
I00
sg32
I01
sg15
I00
sg72
S'reducedEcalRecHitsES'
p116
sg74
g77
sg76
g77
sbsg17
S'/cvmfs/cms.cern.ch/slc6_amd64_gcc530/cms/cmssw/CMSSW_8_0_25/python/RecoEgamma/PhotonIdentification/PhotonIDValueMapProducer_cfi.py'
p117
sg64
g0
(g68
g2
Ntp118
Rp119
(dp120
g14
I00
sg32
I01
sg15
I00
sg72
S'packedPFCandidates'
p121
sg74
g77
sg76
g77
sbsg65
g0
(g68
g2
Ntp122
Rp123
(dp124
g14
I00
sg32
I01
sg15
I00
sg72
S'offlineSlimmedPrimaryVertices'
p125
sg74
g77
sg76
g77
sbsg35
S'PhotonIDValueMapProducer'
p126
sg66
g0
(g68
g2
Ntp127
Rp128
(dp129
g14
I00
sg32
I01
sg15
I00
sg72
S'reducedEcalRecHitsEB'
p130
sg74
g77
sg76
g77
sbsbag0
(g50
g2
Ntp131
Rp132
(dp133
g11
(lp134
g55
ag56
aS'mvaConfigurations'
p135
asg14
I00
sg56
g0
(g68
g2
Ntp136
Rp137
(dp138
g14
I00
sg32
I01
sg15
I00
sg72
g73
sg74
g75
sg76
g77
sbsg15
I00
sg55
g0
(g68
g2
Ntp139
Rp140
(dp141
g14
I00
sg32
I01
sg15
I00
sg72
g81
sg74
g77
sg76
g77
sbsg17
S'/cvmfs/cms.cern.ch/slc6_amd64_gcc530/cms/cmssw/CMSSW_8_0_25/python/RecoEgamma/PhotonIdentification/PhotonMVAValueMapProducer_cfi.py'
p142
sg135
g0
(cFWCore.ParameterSet.Types
VPSet
p143
g20
(lp144
g0
(cFWCore.ParameterSet.Types
PSet
p145
g2
Ntp146
Rp147
(dp148
g14
I00
sg32
I01
sS'full5x5E2x2Map'
p149
g0
(g68
g2
Ntp150
Rp151
(dp152
g14
I00
sg32
I01
sg15
I00
sg72
S'photonIDValueMapProducer'
p153
sg74
g77
sg76
S'phoFull5x5E2x2'
p154
sbsS'esEffSigmaRRMap'
p155
g0
(g68
g2
Ntp156
Rp157
(dp158
g14
I00
sg32
I01
sg15
I00
sg72
S'photonIDValueMapProducer'
p159
sg74
g77
sg76
S'phoESEffSigmaRR'
p160
sbsS'full5x5SigmaIEtaIPhiMap'
p161
g0
(g68
g2
Ntp162
Rp163
(dp164
g14
I00
sg32
I01
sg15
I00
sg72
S'photonIDValueMapProducer'
p165
sg74
g77
sg76
S'phoFull5x5SigmaIEtaIPhi'
p166
sbsg15
I00
sS'full5x5E1x3Map'
p167
g0
(g68
g2
Ntp168
Rp169
(dp170
g14
I00
sg32
I01
sg15
I00
sg72
S'photonIDValueMapProducer'
p171
sg74
g77
sg76
S'phoFull5x5E1x3'
p172
sbsS'weightFileNames'
p173
g0
(g19
g20
(lp174
S'RecoEgamma/PhotonIdentification/data/PHYS14/photon_general_MVA_phys14_pu20bx25_EB_V1.weights.xml'
p175
aS'RecoEgamma/PhotonIdentification/data/PHYS14/photon_general_MVA_phys14_pu20bx25_EE_V1.weights.xml'
p176
atp177
Rp178
(dp179
g14
I00
sg32
I01
sg15
I00
sg33
I1
sbsS'full5x5E5x5Map'
p180
g0
(g68
g2
Ntp181
Rp182
(dp183
g14
I00
sg32
I01
sg15
I00
sg72
S'photonIDValueMapProducer'
p184
sg74
g77
sg76
S'phoFull5x5E5x5'
p185
sbsS'full5x5E2x5MaxMap'
p186
g0
(g68
g2
Ntp187
Rp188
(dp189
g14
I00
sg32
I01
sg15
I00
sg72
S'photonIDValueMapProducer'
p190
sg74
g77
sg76
S'phoFull5x5E2x5Max'
p191
sbsS'mvaName'
p192
g0
(cFWCore.ParameterSet.Types
string
p193
g2
Ntp194
Rp195
(dp196
g14
I00
sg32
I01
sS'_value'
p197
S'PhotonMVAEstimatorRun2Phys14NonTrig'
p198
sg15
I00
sbsS'phoChargedIsolation'
p199
g0
(g68
g2
Ntp200
Rp201
(dp202
g14
I00
sg32
I01
sg15
I00
sg72
S'photonIDValueMapProducer'
p203
sg74
g77
sg76
S'phoChargedIsolation'
p204
sbsg34
S'mvaPhoID_PHYS14_PU20bx25_nonTrig_V1_producer_config'
p205
sS'rho'
p206
g0
(g68
g2
Ntp207
Rp208
(dp209
g14
I00
sg32
I01
sg15
I00
sg72
S'fixedGridRhoFastjetAll'
p210
sg74
g77
sg76
g77
sbsg11
(lp211
g192
ag149
ag155
ag161
ag167
ag173
ag180
ag186
ag199
ag206
aS'mvaTag'
p212
aS'useValueMaps'
p213
aS'full5x5SigmaIEtaIEtaMap'
p214
aS'phoWorstChargedIsolation'
p215
aS'phoPhotonIsolation'
p216
asg213
g0
(cFWCore.ParameterSet.Types
bool
p217
g2
Ntp218
Rp219
(dp220
g14
I00
sg32
I01
sg197
I01
sg15
I00
sbsg212
g0
(g193
g2
Ntp221
Rp222
(dp223
g14
I00
sg32
I01
sg197
S'25nsV1'
p224
sg15
I00
sbsg214
g0
(g68
g2
Ntp225
Rp226
(dp227
g14
I00
sg32
I01
sg15
I00
sg72
S'photonIDValueMapProducer'
p228
sg74
g77
sg76
S'phoFull5x5SigmaIEtaIEta'
p229
sbsg215
g0
(g68
g2
Ntp230
Rp231
(dp232
g14
I00
sg32
I01
sg15
I00
sg72
S'photonIDValueMapProducer'
p233
sg74
g77
sg76
S'phoWorstChargedIsolation'
p234
sbsg216
g0
(g68
g2
Ntp235
Rp236
(dp237
g14
I00
sg32
I01
sg15
I00
sg72
S'photonIDValueMapProducer'
p238
sg74
g77
sg76
S'phoPhotonIsolation'
p239
sbsbag0
(g145
g2
Ntp240
Rp241
(dp242
g14
I00
sg32
I01
sg149
g0
(g68
g2
Ntp243
Rp244
(dp245
g14
I00
sg32
I01
sg15
I00
sg72
S'photonIDValueMapProducer'
p246
sg74
g77
sg76
S'phoFull5x5E2x2'
p247
sbsg155
g0
(g68
g2
Ntp248
Rp249
(dp250
g14
I00
sg32
I01
sg15
I00
sg72
S'photonIDValueMapProducer'
p251
sg74
g77
sg76
S'phoESEffSigmaRR'
p252
sbsg161
g0
(g68
g2
Ntp253
Rp254
(dp255
g14
I00
sg32
I01
sg15
I00
sg72
S'photonIDValueMapProducer'
p256
sg74
g77
sg76
S'phoFull5x5SigmaIEtaIPhi'
p257
sbsg15
I00
sg167
g0
(g68
g2
Ntp258
Rp259
(dp260
g14
I00
sg32
I01
sg15
I00
sg72
S'photonIDValueMapProducer'
p261
sg74
g77
sg76
S'phoFull5x5E1x3'
p262
sbsg173
g0
(g19
g20
(lp263
S'RecoEgamma/PhotonIdentification/data/Spring15/photon_general_MVA_Spring15_50ns_EB_V1.weights.xml'
p264
aS'RecoEgamma/PhotonIdentification/data/Spring15/photon_general_MVA_Spring15_50ns_EE_V1.weights.xml'
p265
atp266
Rp267
(dp268
g14
I00
sg32
I01
sg15
I00
sg33
I1
sbsg180
g0
(g68
g2
Ntp269
Rp270
(dp271
g14
I00
sg32
I01
sg15
I00
sg72
S'photonIDValueMapProducer'
p272
sg74
g77
sg76
S'phoFull5x5E5x5'
p273
sbsg186
g0
(g68
g2
Ntp274
Rp275
(dp276
g14
I00
sg32
I01
sg15
I00
sg72
S'photonIDValueMapProducer'
p277
sg74
g77
sg76
S'phoFull5x5E2x5Max'
p278
sbsg192
g0
(g193
g2
Ntp279
Rp280
(dp281
g14
I00
sg32
I01
sg197
S'PhotonMVAEstimatorRun2Spring15NonTrig'
p282
sg15
I00
sbsg199
g0
(g68
g2
Ntp283
Rp284
(dp285
g14
I00
sg32
I01
sg15
I00
sg72
S'photonIDValueMapProducer'
p286
sg74
g77
sg76
S'phoChargedIsolation'
p287
sbsg34
S'mvaPhoID_Spring15_50ns_nonTrig_V1_producer_config'
p288
sg206
g0
(g68
g2
Ntp289
Rp290
(dp291
g14
I00
sg32
I01
sg15
I00
sg72
g210
sg74
g77
sg76
g77
sbsg11
(lp292
g192
ag149
ag155
ag161
ag167
ag173
ag180
ag186
ag199
ag206
ag212
ag213
ag214
ag215
ag216
asg213
g0
(g217
g2
Ntp293
Rp294
(dp295
g14
I00
sg32
I01
sg197
I01
sg15
I00
sbsg212
g0
(g193
g2
Ntp296
Rp297
(dp298
g14
I00
sg32
I01
sg197
S'50nsV1'
p299
sg15
I00
sbsg214
g0
(g68
g2
Ntp300
Rp301
(dp302
g14
I00
sg32
I01
sg15
I00
sg72
S'photonIDValueMapProducer'
p303
sg74
g77
sg76
S'phoFull5x5SigmaIEtaIEta'
p304
sbsg215
g0
(g68
g2
Ntp305
Rp306
(dp307
g14
I00
sg32
I01
sg15
I00
sg72
S'photonIDValueMapProducer'
p308
sg74
g77
sg76
S'phoWorstChargedIsolation'
p309
sbsg216
g0
(g68
g2
Ntp310
Rp311
(dp312
g14
I00
sg32
I01
sg15
I00
sg72
S'photonIDValueMapProducer'
p313
sg74
g77
sg76
S'phoPhotonIsolation'
p314
sbsbag0
(g145
g2
Ntp315
Rp316
(dp317
g14
I00
sg32
I01
sg149
g0
(g68
g2
Ntp318
Rp319
(dp320
g14
I00
sg32
I01
sg15
I00
sg72
S'photonIDValueMapProducer'
p321
sg74
g77
sg76
S'phoFull5x5E2x2'
p322
sbsg155
g0
(g68
g2
Ntp323
Rp324
(dp325
g14
I00
sg32
I01
sg15
I00
sg72
S'photonIDValueMapProducer'
p326
sg74
g77
sg76
S'phoESEffSigmaRR'
p327
sbsg161
g0
(g68
g2
Ntp328
Rp329
(dp330
g14
I00
sg32
I01
sg15
I00
sg72
S'photonIDValueMapProducer'
p331
sg74
g77
sg76
S'phoFull5x5SigmaIEtaIPhi'
p332
sbsg15
I00
sg167
g0
(g68
g2
Ntp333
Rp334
(dp335
g14
I00
sg32
I01
sg15
I00
sg72
S'photonIDValueMapProducer'
p336
sg74
g77
sg76
S'phoFull5x5E1x3'
p337
sbsg173
g0
(g19
g20
(lp338
S'RecoEgamma/PhotonIdentification/data/Spring15/photon_general_MVA_Spring15_50ns_EB_V2.weights.xml'
p339
aS'RecoEgamma/PhotonIdentification/data/Spring15/photon_general_MVA_Spring15_50ns_EE_V2.weights.xml'
p340
atp341
Rp342
(dp343
g14
I00
sg32
I01
sg15
I00
sg33
I1
sbsg180
g0
(g68
g2
Ntp344
Rp345
(dp346
g14
I00
sg32
I01
sg15
I00
sg72
S'photonIDValueMapProducer'
p347
sg74
g77
sg76
S'phoFull5x5E5x5'
p348
sbsg186
g0
(g68
g2
Ntp349
Rp350
(dp351
g14
I00
sg32
I01
sg15
I00
sg72
S'photonIDValueMapProducer'
p352
sg74
g77
sg76
S'phoFull5x5E2x5Max'
p353
sbsg192
g0
(g193
g2
Ntp354
Rp355
(dp356
g14
I00
sg32
I01
sg197
g282
sg15
I00
sbsg199
g0
(g68
g2
Ntp357
Rp358
(dp359
g14
I00
sg32
I01
sg15
I00
sg72
S'photonIDValueMapProducer'
p360
sg74
g77
sg76
S'phoChargedIsolation'
p361
sbsg34
S'mvaPhoID_Spring15_50ns_nonTrig_V2_producer_config'
p362
sg206
g0
(g68
g2
Ntp363
Rp364
(dp365
g14
I00
sg32
I01
sg15
I00
sg72
g210
sg74
g77
sg76
g77
sbsg11
(lp366
g192
ag149
ag155
ag161
ag167
ag173
ag180
ag186
ag199
ag206
ag212
ag213
ag214
ag215
ag216
asg213
g0
(g217
g2
Ntp367
Rp368
(dp369
g14
I00
sg32
I01
sg197
I01
sg15
I00
sbsg212
g0
(g193
g2
Ntp370
Rp371
(dp372
g14
I00
sg32
I01
sg197
S'50nsV2'
p373
sg15
I00
sbsg214
g0
(g68
g2
Ntp374
Rp375
(dp376
g14
I00
sg32
I01
sg15
I00
sg72
S'photonIDValueMapProducer'
p377
sg74
g77
sg76
S'phoFull5x5SigmaIEtaIEta'
p378
sbsg215
g0
(g68
g2
Ntp379
Rp380
(dp381
g14
I00
sg32
I01
sg15
I00
sg72
S'photonIDValueMapProducer'
p382
sg74
g77
sg76
S'phoWorstChargedIsolation'
p383
sbsg216
g0
(g68
g2
Ntp384
Rp385
(dp386
g14
I00
sg32
I01
sg15
I00
sg72
S'photonIDValueMapProducer'
p387
sg74
g77
sg76
S'phoPhotonIsolation'
p388
sbsbag0
(g145
g2
Ntp389
Rp390
(dp391
g14
I00
sg32
I01
sg149
g0
(g68
g2
Ntp392
Rp393
(dp394
g14
I00
sg32
I01
sg15
I00
sg72
S'photonIDValueMapProducer'
p395
sg74
g77
sg76
S'phoFull5x5E2x2'
p396
sbsg155
g0
(g68
g2
Ntp397
Rp398
(dp399
g14
I00
sg32
I01
sg15
I00
sg72
S'photonIDValueMapProducer'
p400
sg74
g77
sg76
S'phoESEffSigmaRR'
p401
sbsg161
g0
(g68
g2
Ntp402
Rp403
(dp404
g14
I00
sg32
I01
sg15
I00
sg72
S'photonIDValueMapProducer'
p405
sg74
g77
sg76
S'phoFull5x5SigmaIEtaIPhi'
p406
sbsg15
I00
sg167
g0
(g68
g2
Ntp407
Rp408
(dp409
g14
I00
sg32
I01
sg15
I00
sg72
S'photonIDValueMapProducer'
p410
sg74
g77
sg76
S'phoFull5x5E1x3'
p411
sbsg173
g0
(g19
g20
(lp412
S'RecoEgamma/PhotonIdentification/data/Spring15/photon_general_MVA_Spring15_25ns_EB_V2.weights.xml'
p413
aS'RecoEgamma/PhotonIdentification/data/Spring15/photon_general_MVA_Spring15_25ns_EE_V2.weights.xml'
p414
atp415
Rp416
(dp417
g14
I00
sg32
I01
sg15
I00
sg33
I1
sbsg180
g0
(g68
g2
Ntp418
Rp419
(dp420
g14
I00
sg32
I01
sg15
I00
sg72
S'photonIDValueMapProducer'
p421
sg74
g77
sg76
S'phoFull5x5E5x5'
p422
sbsg186
g0
(g68
g2
Ntp423
Rp424
(dp425
g14
I00
sg32
I01
sg15
I00
sg72
S'photonIDValueMapProducer'
p426
sg74
g77
sg76
S'phoFull5x5E2x5Max'
p427
sbsg192
g0
(g193
g2
Ntp428
Rp429
(dp430
g14
I00
sg32
I01
sg197
g282
sg15
I00
sbsg199
g0
(g68
g2
Ntp431
Rp432
(dp433
g14
I00
sg32
I01
sg15
I00
sg72
S'photonIDValueMapProducer'
p434
sg74
g77
sg76
S'phoChargedIsolation'
p435
sbsg34
S'mvaPhoID_Spring15_25ns_nonTrig_V2_producer_config'
p436
sg206
g0
(g68
g2
Ntp437
Rp438
(dp439
g14
I00
sg32
I01
sg15
I00
sg72
g210
sg74
g77
sg76
g77
sbsg11
(lp440
g192
ag149
ag155
ag161
ag167
ag173
ag180
ag186
ag199
ag206
ag212
ag213
ag214
ag215
ag216
asg213
g0
(g217
g2
Ntp441
Rp442
(dp443
g14
I00
sg32
I01
sg197
I01
sg15
I00
sbsg212
g0
(g193
g2
Ntp444
Rp445
(dp446
g14
I00
sg32
I01
sg197
S'25nsV2'
p447
sg15
I00
sbsg214
g0
(g68
g2
Ntp448
Rp449
(dp450
g14
I00
sg32
I01
sg15
I00
sg72
S'photonIDValueMapProducer'
p451
sg74
g77
sg76
S'phoFull5x5SigmaIEtaIEta'
p452
sbsg215
g0
(g68
g2
Ntp453
Rp454
(dp455
g14
I00
sg32
I01
sg15
I00
sg72
S'photonIDValueMapProducer'
p456
sg74
g77
sg76
S'phoWorstChargedIsolation'
p457
sbsg216
g0
(g68
g2
Ntp458
Rp459
(dp460
g14
I00
sg32
I01
sg15
I00
sg72
S'photonIDValueMapProducer'
p461
sg74
g77
sg76
S'phoPhotonIsolation'
p462
sbsbag0
(g145
g2
Ntp463
Rp464
(dp465
g14
I00
sg32
I01
sg149
g0
(g68
g2
Ntp466
Rp467
(dp468
g14
I00
sg32
I01
sg15
I00
sg72
S'photonIDValueMapProducer'
p469
sg74
g77
sg76
S'phoFull5x5E2x2'
p470
sbsg155
g0
(g68
g2
Ntp471
Rp472
(dp473
g14
I00
sg32
I01
sg15
I00
sg72
S'photonIDValueMapProducer'
p474
sg74
g77
sg76
S'phoESEffSigmaRR'
p475
sbsg161
g0
(g68
g2
Ntp476
Rp477
(dp478
g14
I00
sg32
I01
sg15
I00
sg72
S'photonIDValueMapProducer'
p479
sg74
g77
sg76
S'phoFull5x5SigmaIEtaIPhi'
p480
sbsg15
I00
sg167
g0
(g68
g2
Ntp481
Rp482
(dp483
g14
I00
sg32
I01
sg15
I00
sg72
S'photonIDValueMapProducer'
p484
sg74
g77
sg76
S'phoFull5x5E1x3'
p485
sbsg173
g0
(g19
g20
(lp486
S'RecoEgamma/PhotonIdentification/data/Spring15/photon_general_MVA_Spring15_50ns_EB_V2.weights.xml'
p487
aS'RecoEgamma/PhotonIdentification/data/Spring15/photon_general_MVA_Spring15_50ns_EE_V2.weights.xml'
p488
atp489
Rp490
(dp491
g14
I00
sg32
I01
sg15
I00
sg33
I1
sbsg180
g0
(g68
g2
Ntp492
Rp493
(dp494
g14
I00
sg32
I01
sg15
I00
sg72
S'photonIDValueMapProducer'
p495
sg74
g77
sg76
S'phoFull5x5E5x5'
p496
sbsg186
g0
(g68
g2
Ntp497
Rp498
(dp499
g14
I00
sg32
I01
sg15
I00
sg72
S'photonIDValueMapProducer'
p500
sg74
g77
sg76
S'phoFull5x5E2x5Max'
p501
sbsg192
g0
(g193
g2
Ntp502
Rp503
(dp504
g14
I00
sg32
I01
sg197
g282
sg15
I00
sbsg199
g0
(g68
g2
Ntp505
Rp506
(dp507
g14
I00
sg32
I01
sg15
I00
sg72
S'photonIDValueMapProducer'
p508
sg74
g77
sg76
S'phoChargedIsolation'
p509
sbsg34
S'mvaPhoID_Spring15_50ns_nonTrig_V2p1_producer_config'
p510
sg206
g0
(g68
g2
Ntp511
Rp512
(dp513
g14
I00
sg32
I01
sg15
I00
sg72
g210
sg74
g77
sg76
g77
sbsg11
(lp514
g192
ag149
ag155
ag161
ag167
ag173
ag180
ag186
ag199
ag206
ag212
ag213
ag214
ag215
ag216
asg213
g0
(g217
g2
Ntp515
Rp516
(dp517
g14
I00
sg32
I01
sg197
I00
sg15
I00
sbsg212
g0
(g193
g2
Ntp518
Rp519
(dp520
g14
I00
sg32
I01
sg197
S'50nsV2p1'
p521
sg15
I00
sbsg214
g0
(g68
g2
Ntp522
Rp523
(dp524
g14
I00
sg32
I01
sg15
I00
sg72
S'photonIDValueMapProducer'
p525
sg74
g77
sg76
S'phoFull5x5SigmaIEtaIEta'
p526
sbsg215
g0
(g68
g2
Ntp527
Rp528
(dp529
g14
I00
sg32
I01
sg15
I00
sg72
S'photonIDValueMapProducer'
p530
sg74
g77
sg76
S'phoWorstChargedIsolation'
p531
sbsg216
g0
(g68
g2
Ntp532
Rp533
(dp534
g14
I00
sg32
I01
sg15
I00
sg72
S'photonIDValueMapProducer'
p535
sg74
g77
sg76
S'phoPhotonIsolation'
p536
sbsbag0
(g145
g2
Ntp537
Rp538
(dp539
g14
I00
sg32
I01
sg149
g0
(g68
g2
Ntp540
Rp541
(dp542
g14
I00
sg32
I01
sg15
I00
sg72
S'photonIDValueMapProducer'
p543
sg74
g77
sg76
S'phoFull5x5E2x2'
p544
sbsg155
g0
(g68
g2
Ntp545
Rp546
(dp547
g14
I00
sg32
I01
sg15
I00
sg72
S'photonIDValueMapProducer'
p548
sg74
g77
sg76
S'phoESEffSigmaRR'
p549
sbsg161
g0
(g68
g2
Ntp550
Rp551
(dp552
g14
I00
sg32
I01
sg15
I00
sg72
S'photonIDValueMapProducer'
p553
sg74
g77
sg76
S'phoFull5x5SigmaIEtaIPhi'
p554
sbsg15
I00
sg167
g0
(g68
g2
Ntp555
Rp556
(dp557
g14
I00
sg32
I01
sg15
I00
sg72
S'photonIDValueMapProducer'
p558
sg74
g77
sg76
S'phoFull5x5E1x3'
p559
sbsg173
g0
(g19
g20
(lp560
S'RecoEgamma/PhotonIdentification/data/Spring15/photon_general_MVA_Spring15_25ns_EB_V2.weights.xml'
p561
aS'RecoEgamma/PhotonIdentification/data/Spring15/photon_general_MVA_Spring15_25ns_EE_V2.weights.xml'
p562
atp563
Rp564
(dp565
g14
I00
sg32
I01
sg15
I00
sg33
I1
sbsg180
g0
(g68
g2
Ntp566
Rp567
(dp568
g14
I00
sg32
I01
sg15
I00
sg72
S'photonIDValueMapProducer'
p569
sg74
g77
sg76
S'phoFull5x5E5x5'
p570
sbsg186
g0
(g68
g2
Ntp571
Rp572
(dp573
g14
I00
sg32
I01
sg15
I00
sg72
S'photonIDValueMapProducer'
p574
sg74
g77
sg76
S'phoFull5x5E2x5Max'
p575
sbsg192
g0
(g193
g2
Ntp576
Rp577
(dp578
g14
I00
sg32
I01
sg197
g282
sg15
I00
sbsg199
g0
(g68
g2
Ntp579
Rp580
(dp581
g14
I00
sg32
I01
sg15
I00
sg72
S'photonIDValueMapProducer'
p582
sg74
g77
sg76
S'phoChargedIsolation'
p583
sbsg34
S'mvaPhoID_Spring15_25ns_nonTrig_V2p1_producer_config'
p584
sg206
g0
(g68
g2
Ntp585
Rp586
(dp587
g14
I00
sg32
I01
sg15
I00
sg72
g210
sg74
g77
sg76
g77
sbsg11
(lp588
g192
ag149
ag155
ag161
ag167
ag173
ag180
ag186
ag199
ag206
ag212
ag213
ag214
ag215
ag216
asg213
g0
(g217
g2
Ntp589
Rp590
(dp591
g14
I00
sg32
I01
sg197
I00
sg15
I00
sbsg212
g0
(g193
g2
Ntp592
Rp593
(dp594
g14
I00
sg32
I01
sg197
S'25nsV2p1'
p595
sg15
I00
sbsg214
g0
(g68
g2
Ntp596
Rp597
(dp598
g14
I00
sg32
I01
sg15
I00
sg72
S'photonIDValueMapProducer'
p599
sg74
g77
sg76
S'phoFull5x5SigmaIEtaIEta'
p600
sbsg215
g0
(g68
g2
Ntp601
Rp602
(dp603
g14
I00
sg32
I01
sg15
I00
sg72
S'photonIDValueMapProducer'
p604
sg74
g77
sg76
S'phoWorstChargedIsolation'
p605
sbsg216
g0
(g68
g2
Ntp606
Rp607
(dp608
g14
I00
sg32
I01
sg15
I00
sg72
S'photonIDValueMapProducer'
p609
sg74
g77
sg76
S'phoPhotonIsolation'
p610
sbsbatp611
Rp612
(dp613
g14
I00
sg32
I01
sg34
S'mvaConfigsForPhoProducer'
p614
sg15
I00
sg33
I1
sbsg16
I38
sg34
S'photonMVAValueMapProducer'
p615
sg35
S'PhotonMVAValueMapProducer'
p616
sbag0
(g50
g2
Ntp617
Rp618
(dp619
g11
(lp620
S'physicsObjectIDs'
p621
aS'physicsObjectSrc'
p622
asg14
I00
sg15
I01
sg16
I6
sg17
S'/cvmfs/cms.cern.ch/slc6_amd64_gcc530/cms/cmssw/CMSSW_8_0_25/python/RecoEgamma/PhotonIdentification/egmPhotonIDs_cfi.py'
p623
sg622
g0
(g68
g2
Ntp624
Rp625
(dp626
g14
I00
sg32
I01
sg15
I00
sg72
g73
sg74
g77
sg76
g77
sbsg621
g0
(g143
g20
(lp627
g0
(g145
g2
Ntp628
Rp629
(dp630
g14
I00
sg32
I01
sS'idDefinition'
p631
g0
(g145
g2
Ntp632
Rp633
(dp634
g14
I00
sg32
I01
sg15
I01
sS'idName'
p635
g0
(g193
g2
Ntp636
Rp637
(dp638
g14
I00
sg32
I01
sg197
S'cutBasedPhotonID-Spring15-25ns-V1-standalone-loose'
p639
sg15
I00
sbsS'cutFlow'
p640
g0
(g143
g20
(lp641
g0
(g145
g2
Ntp642
Rp643
(dp644
g14
I00
sg32
I01
sg15
I00
sS'cutName'
p645
g0
(g193
g2
Ntp646
Rp647
(dp648
g14
I00
sg32
I01
sg197
S'MinPtCut'
p649
sg15
I00
sbsS'needsAdditionalProducts'
p650
g0
(g217
g2
Ntp651
Rp652
(dp653
g14
I00
sg32
I01
sg197
I00
sg15
I00
sbsS'isIgnored'
p654
g0
(g217
g2
Ntp655
Rp656
(dp657
g14
I00
sg32
I01
sg197
I00
sg15
I00
sbsg11
(lp658
g650
aS'minPt'
p659
ag645
ag654
asg659
g0
(cFWCore.ParameterSet.Types
double
p660
g2
Ntp661
Rp662
(dp663
g14
I00
sg32
I01
sg197
F5.0
sg15
I00
sbsbag0
(g145
g2
Ntp664
Rp665
(dp666
g14
I00
sg32
I01
sg15
I00
sg645
g0
(g193
g2
Ntp667
Rp668
(dp669
g14
I00
sg32
I01
sg197
S'PhoSCEtaMultiRangeCut'
p670
sg15
I00
sbsg650
g0
(g217
g2
Ntp671
Rp672
(dp673
g14
I00
sg32
I01
sg197
I00
sg15
I00
sbsg654
g0
(g217
g2
Ntp674
Rp675
(dp676
g14
I00
sg32
I01
sg197
I00
sg15
I00
sbsS'allowedEtaRanges'
p677
g0
(g143
g20
(lp678
g0
(g145
g2
Ntp679
Rp680
(dp681
g14
I00
sg32
I01
sg15
I00
sS'maxEta'
p682
g0
(g660
g2
Ntp683
Rp684
(dp685
g14
I00
sg32
I01
sg197
F1.479
sg15
I00
sbsS'minEta'
p686
g0
(g660
g2
Ntp687
Rp688
(dp689
g14
I00
sg32
I01
sg197
F0.0
sg15
I00
sbsg11
(lp690
g682
ag686
asbag0
(g145
g2
Ntp691
Rp692
(dp693
g14
I00
sg32
I01
sg15
I00
sg682
g0
(g660
g2
Ntp694
Rp695
(dp696
g14
I00
sg32
I01
sg197
F2.5
sg15
I00
sbsg686
g0
(g660
g2
Ntp697
Rp698
(dp699
g14
I00
sg32
I01
sg197
F1.479
sg15
I00
sbsg11
(lp700
g682
ag686
asbatp701
Rp702
(dp703
g14
I00
sg32
I01
sg15
I00
sg33
I1
sbsg11
(lp704
g650
aS'useAbsEta'
p705
ag645
ag677
ag654
asg705
g0
(g217
g2
Ntp706
Rp707
(dp708
g14
I00
sg32
I01
sg197
I01
sg15
I00
sbsbag0
(g145
g2
Ntp709
Rp710
(dp711
g14
I00
sg32
I01
sg15
I00
sg645
g0
(g193
g2
Ntp712
Rp713
(dp714
g14
I00
sg32
I01
sg197
S'PhoSingleTowerHadOverEmCut'
p715
sg15
I00
sbsS'barrelCutOff'
p716
g0
(g660
g2
Ntp717
Rp718
(dp719
g14
I00
sg32
I01
sg197
F1.479
sg15
I00
sbsg650
g0
(g217
g2
Ntp720
Rp721
(dp722
g14
I00
sg32
I01
sg197
I00
sg15
I00
sbsS'hadronicOverEMCutValueEE'
p723
g0
(g660
g2
Ntp724
Rp725
(dp726
g14
I00
sg32
I01
sg197
F0.05
sg15
I00
sbsS'hadronicOverEMCutValueEB'
p727
g0
(g660
g2
Ntp728
Rp729
(dp730
g14
I00
sg32
I01
sg197
F0.05
sg15
I00
sbsg11
(lp731
g645
ag716
ag650
ag723
ag727
ag654
asg654
g0
(g217
g2
Ntp732
Rp733
(dp734
g14
I00
sg32
I01
sg197
I00
sg15
I00
sbsbag0
(g145
g2
Ntp735
Rp736
(dp737
g14
I00
sg32
I01
sS'cutValueEE'
p738
g0
(g660
g2
Ntp739
Rp740
(dp741
g14
I00
sg32
I01
sg197
F0.0274
sg15
I00
sbsS'cutValueEB'
p742
g0
(g660
g2
Ntp743
Rp744
(dp745
g14
I00
sg32
I01
sg197
F0.0102
sg15
I00
sbsg15
I00
sg645
g0
(g193
g2
Ntp746
Rp747
(dp748
g14
I00
sg32
I01
sg197
S'PhoFull5x5SigmaIEtaIEtaCut'
p749
sg15
I00
sbsg650
g0
(g217
g2
Ntp750
Rp751
(dp752
g14
I00
sg32
I01
sg197
I00
sg15
I00
sbsg716
g0
(g660
g2
Ntp753
Rp754
(dp755
g14
I00
sg32
I01
sg197
F1.479
sg15
I00
sbsg11
(lp756
g738
ag742
ag645
ag650
ag716
ag214
ag654
asg214
g0
(g68
g2
Ntp757
Rp758
(dp759
g14
I00
sg32
I01
sg15
I00
sg72
S'photonIDValueMapProducer'
p760
sg74
g77
sg76
S'phoFull5x5SigmaIEtaIEta'
p761
sbsg654
g0
(g217
g2
Ntp762
Rp763
(dp764
g14
I00
sg32
I01
sg197
I00
sg15
I00
sbsbag0
(g145
g2
Ntp765
Rp766
(dp767
g14
I00
sg32
I01
sg15
I00
sg645
g0
(g193
g2
Ntp768
Rp769
(dp770
g14
I00
sg32
I01
sg197
S'PhoAnyPFIsoWithEACut'
p771
sg15
I00
sbsg716
g0
(g660
g2
Ntp772
Rp773
(dp774
g14
I00
sg32
I01
sg197
F1.479
sg15
I00
sbsS'anyPFIsoMap'
p775
g0
(g68
g2
Ntp776
Rp777
(dp778
g14
I00
sg32
I01
sg15
I00
sg72
S'photonIDValueMapProducer'
p779
sg74
g77
sg76
S'phoChargedIsolation'
p780
sbsS'C2_EB'
p781
g0
(g660
g2
Ntp782
Rp783
(dp784
g14
I00
sg32
I01
sg197
I0
sg15
I00
sbsg654
g0
(g217
g2
Ntp785
Rp786
(dp787
g14
I00
sg32
I01
sg197
I00
sg15
I00
sbsS'C2_EE'
p788
g0
(g660
g2
Ntp789
Rp790
(dp791
g14
I00
sg32
I01
sg197
F0.0
sg15
I00
sbsg650
g0
(g217
g2
Ntp792
Rp793
(dp794
g14
I00
sg32
I01
sg197
I01
sg15
I00
sbsS'C1_EB'
p795
g0
(g660
g2
Ntp796
Rp797
(dp798
g14
I00
sg32
I01
sg197
F3.32
sg15
I00
sbsS'C1_EE'
p799
g0
(g660
g2
Ntp800
Rp801
(dp802
g14
I00
sg32
I01
sg197
F1.97
sg15
I00
sbsg206
g0
(g68
g2
Ntp803
Rp804
(dp805
g14
I00
sg32
I01
sg15
I00
sg72
g210
sg74
g77
sg76
g77
sbsg11
(lp806
g799
ag645
ag716
ag775
ag781
ag654
ag788
ag650
ag795
ag206
aS'effAreasConfigFile'
p807
aS'useRelativeIso'
p808
asg807
g0
(cFWCore.ParameterSet.Types
FileInPath
p809
g2
Ntp810
Rp811
(dp812
g14
I00
sg32
I01
sg197
S'RecoEgamma/PhotonIdentification/data/Spring15/effAreaPhotons_cone03_pfChargedHadrons_25ns_NULLcorrection.txt'
p813
sg15
I00
sbsg808
g0
(g217
g2
Ntp814
Rp815
(dp816
g14
I00
sg32
I01
sg197
I00
sg15
I00
sbsbag0
(g145
g2
Ntp817
Rp818
(dp819
g14
I00
sg32
I01
sS'C3_EE'
p820
g0
(g660
g2
Ntp821
Rp822
(dp823
g14
I00
sg32
I01
sg197
F2.5e-05
sg15
I00
sbsg15
I00
sg645
g0
(g193
g2
Ntp824
Rp825
(dp826
g14
I00
sg32
I01
sg197
S'PhoAnyPFIsoWithEAAndQuadScalingCut'
p827
sg15
I00
sbsg716
g0
(g660
g2
Ntp828
Rp829
(dp830
g14
I00
sg32
I01
sg197
F1.479
sg15
I00
sbsg775
g0
(g68
g2
Ntp831
Rp832
(dp833
g14
I00
sg32
I01
sg15
I00
sg72
S'photonIDValueMapProducer'
p834
sg74
g77
sg76
S'phoNeutralHadronIsolation'
p835
sbsg781
g0
(g660
g2
Ntp836
Rp837
(dp838
g14
I00
sg32
I01
sg197
F0.014
sg15
I00
sbsg654
g0
(g217
g2
Ntp839
Rp840
(dp841
g14
I00
sg32
I01
sg197
I00
sg15
I00
sbsg788
g0
(g660
g2
Ntp842
Rp843
(dp844
g14
I00
sg32
I01
sg197
F0.0139
sg15
I00
sbsg650
g0
(g217
g2
Ntp845
Rp846
(dp847
g14
I00
sg32
I01
sg197
I01
sg15
I00
sbsg795
g0
(g660
g2
Ntp848
Rp849
(dp850
g14
I00
sg32
I01
sg197
F1.92
sg15
I00
sbsg799
g0
(g660
g2
Ntp851
Rp852
(dp853
g14
I00
sg32
I01
sg197
F11.86
sg15
I00
sbsg206
g0
(g68
g2
Ntp854
Rp855
(dp856
g14
I00
sg32
I01
sg15
I00
sg72
g210
sg74
g77
sg76
g77
sbsg11
(lp857
g799
ag820
aS'C3_EB'
p858
ag645
ag716
ag775
ag781
ag654
ag788
ag650
ag795
ag206
ag807
ag808
asg807
g0
(g809
g2
Ntp859
Rp860
(dp861
g14
I00
sg32
I01
sg197
S'RecoEgamma/PhotonIdentification/data/Spring15/effAreaPhotons_cone03_pfNeutralHadrons_25ns_90percentBased.txt'
p862
sg15
I00
sbsg808
g0
(g217
g2
Ntp863
Rp864
(dp865
g14
I00
sg32
I01
sg197
I00
sg15
I00
sbsg858
g0
(g660
g2
Ntp866
Rp867
(dp868
g14
I00
sg32
I01
sg197
F1.9e-05
sg15
I00
sbsbag0
(g145
g2
Ntp869
Rp870
(dp871
g14
I00
sg32
I01
sg15
I00
sg645
g0
(g193
g2
Ntp872
Rp873
(dp874
g14
I00
sg32
I01
sg197
g771
sg15
I00
sbsg716
g0
(g660
g2
Ntp875
Rp876
(dp877
g14
I00
sg32
I01
sg197
F1.479
sg15
I00
sbsg775
g0
(g68
g2
Ntp878
Rp879
(dp880
g14
I00
sg32
I01
sg15
I00
sg72
S'photonIDValueMapProducer'
p881
sg74
g77
sg76
S'phoPhotonIsolation'
p882
sbsg781
g0
(g660
g2
Ntp883
Rp884
(dp885
g14
I00
sg32
I01
sg197
F0.0053
sg15
I00
sbsg654
g0
(g217
g2
Ntp886
Rp887
(dp888
g14
I00
sg32
I01
sg197
I00
sg15
I00
sbsg788
g0
(g660
g2
Ntp889
Rp890
(dp891
g14
I00
sg32
I01
sg197
F0.0034
sg15
I00
sbsg650
g0
(g217
g2
Ntp892
Rp893
(dp894
g14
I00
sg32
I01
sg197
I01
sg15
I00
sbsg795
g0
(g660
g2
Ntp895
Rp896
(dp897
g14
I00
sg32
I01
sg197
F0.81
sg15
I00
sbsg799
g0
(g660
g2
Ntp898
Rp899
(dp900
g14
I00
sg32
I01
sg197
F0.83
sg15
I00
sbsg206
g0
(g68
g2
Ntp901
Rp902
(dp903
g14
I00
sg32
I01
sg15
I00
sg72
g210
sg74
g77
sg76
g77
sbsg11
(lp904
g799
ag645
ag716
ag775
ag781
ag654
ag788
ag650
ag795
ag206
ag807
ag808
asg807
g0
(g809
g2
Ntp905
Rp906
(dp907
g14
I00
sg32
I01
sg197
S'RecoEgamma/PhotonIdentification/data/Spring15/effAreaPhotons_cone03_pfPhotons_25ns_90percentBased.txt'
p908
sg15
I00
sbsg808
g0
(g217
g2
Ntp909
Rp910
(dp911
g14
I00
sg32
I01
sg197
I00
sg15
I00
sbsbatp912
Rp913
(dp914
g14
I00
sg32
I01
sg15
I00
sg33
I1
sbsg11
(lp915
g635
ag640
asbsg15
I00
sS'idMD5'
p916
g0
(g193
g2
Ntp917
Rp918
(dp919
g14
I00
sg32
I01
sg197
S'3dbb7c6922f3e1b9eb9cf1c679ff70bb'
p920
sg15
I00
sbsS'isPOGApproved'
p921
g0
(g217
g2
Ntp922
Rp923
(dp924
g14
I00
sg32
I00
sg197
I01
sg15
I00
sbsg11
(lp925
g631
ag916
ag921
asbag0
(g145
g2
Ntp926
Rp927
(dp928
g14
I00
sg32
I01
sg631
g0
(g145
g2
Ntp929
Rp930
(dp931
g14
I00
sg32
I01
sg15
I01
sg635
g0
(g193
g2
Ntp932
Rp933
(dp934
g14
I00
sg32
I01
sg197
S'cutBasedPhotonID-Spring15-25ns-V1-standalone-medium'
p935
sg15
I00
sbsg640
g0
(g143
g20
(lp936
g0
(g145
g2
Ntp937
Rp938
(dp939
g14
I00
sg32
I01
sg15
I00
sg645
g0
(g193
g2
Ntp940
Rp941
(dp942
g14
I00
sg32
I01
sg197
g649
sg15
I00
sbsg650
g0
(g217
g2
Ntp943
Rp944
(dp945
g14
I00
sg32
I01
sg197
I00
sg15
I00
sbsg654
g0
(g217
g2
Ntp946
Rp947
(dp948
g14
I00
sg32
I01
sg197
I00
sg15
I00
sbsg11
(lp949
g650
ag659
ag645
ag654
asg659
g0
(g660
g2
Ntp950
Rp951
(dp952
g14
I00
sg32
I01
sg197
F5.0
sg15
I00
sbsbag0
(g145
g2
Ntp953
Rp954
(dp955
g14
I00
sg32
I01
sg15
I00
sg645
g0
(g193
g2
Ntp956
Rp957
(dp958
g14
I00
sg32
I01
sg197
g670
sg15
I00
sbsg650
g0
(g217
g2
Ntp959
Rp960
(dp961
g14
I00
sg32
I01
sg197
I00
sg15
I00
sbsg654
g0
(g217
g2
Ntp962
Rp963
(dp964
g14
I00
sg32
I01
sg197
I00
sg15
I00
sbsg677
g0
(g143
g20
(lp965
g0
(g145
g2
Ntp966
Rp967
(dp968
g14
I00
sg32
I01
sg15
I00
sg682
g0
(g660
g2
Ntp969
Rp970
(dp971
g14
I00
sg32
I01
sg197
F1.479
sg15
I00
sbsg686
g0
(g660
g2
Ntp972
Rp973
(dp974
g14
I00
sg32
I01
sg197
F0.0
sg15
I00
sbsg11
(lp975
g682
ag686
asbag0
(g145
g2
Ntp976
Rp977
(dp978
g14
I00
sg32
I01
sg15
I00
sg682
g0
(g660
g2
Ntp979
Rp980
(dp981
g14
I00
sg32
I01
sg197
F2.5
sg15
I00
sbsg686
g0
(g660
g2
Ntp982
Rp983
(dp984
g14
I00
sg32
I01
sg197
F1.479
sg15
I00
sbsg11
(lp985
g682
ag686
asbatp986
Rp987
(dp988
g14
I00
sg32
I01
sg15
I00
sg33
I1
sbsg11
(lp989
g650
ag705
ag645
ag677
ag654
asg705
g0
(g217
g2
Ntp990
Rp991
(dp992
g14
I00
sg32
I01
sg197
I01
sg15
I00
sbsbag0
(g145
g2
Ntp993
Rp994
(dp995
g14
I00
sg32
I01
sg15
I00
sg645
g0
(g193
g2
Ntp996
Rp997
(dp998
g14
I00
sg32
I01
sg197
g715
sg15
I00
sbsg716
g0
(g660
g2
Ntp999
Rp1000
(dp1001
g14
I00
sg32
I01
sg197
F1.479
sg15
I00
sbsg650
g0
(g217
g2
Ntp1002
Rp1003
(dp1004
g14
I00
sg32
I01
sg197
I00
sg15
I00
sbsg723
g0
(g660
g2
Ntp1005
Rp1006
(dp1007
g14
I00
sg32
I01
sg197
F0.05
sg15
I00
sbsg727
g0
(g660
g2
Ntp1008
Rp1009
(dp1010
g14
I00
sg32
I01
sg197
F0.05
sg15
I00
sbsg11
(lp1011
g645
ag716
ag650
ag723
ag727
ag654
asg654
g0
(g217
g2
Ntp1012
Rp1013
(dp1014
g14
I00
sg32
I01
sg197
I00
sg15
I00
sbsbag0
(g145
g2
Ntp1015
Rp1016
(dp1017
g14
I00
sg32
I01
sg738
g0
(g660
g2
Ntp1018
Rp1019
(dp1020
g14
I00
sg32
I01
sg197
F0.0268
sg15
I00
sbsg742
g0
(g660
g2
Ntp1021
Rp1022
(dp1023
g14
I00
sg32
I01
sg197
F0.0102
sg15
I00
sbsg15
I00
sg645
g0
(g193
g2
Ntp1024
Rp1025
(dp1026
g14
I00
sg32
I01
sg197
g749
sg15
I00
sbsg650
g0
(g217
g2
Ntp1027
Rp1028
(dp1029
g14
I00
sg32
I01
sg197
I00
sg15
I00
sbsg716
g0
(g660
g2
Ntp1030
Rp1031
(dp1032
g14
I00
sg32
I01
sg197
F1.479
sg15
I00
sbsg11
(lp1033
g738
ag742
ag645
ag650
ag716
ag214
ag654
asg214
g0
(g68
g2
Ntp1034
Rp1035
(dp1036
g14
I00
sg32
I01
sg15
I00
sg72
S'photonIDValueMapProducer'
p1037
sg74
g77
sg76
S'phoFull5x5SigmaIEtaIEta'
p1038
sbsg654
g0
(g217
g2
Ntp1039
Rp1040
(dp1041
g14
I00
sg32
I01
sg197
I00
sg15
I00
sbsbag0
(g145
g2
Ntp1042
Rp1043
(dp1044
g14
I00
sg32
I01
sg15
I00
sg645
g0
(g193
g2
Ntp1045
Rp1046
(dp1047
g14
I00
sg32
I01
sg197
g771
sg15
I00
sbsg716
g0
(g660
g2
Ntp1048
Rp1049
(dp1050
g14
I00
sg32
I01
sg197
F1.479
sg15
I00
sbsg775
g0
(g68
g2
Ntp1051
Rp1052
(dp1053
g14
I00
sg32
I01
sg15
I00
sg72
S'photonIDValueMapProducer'
p1054
sg74
g77
sg76
S'phoChargedIsolation'
p1055
sbsg781
g0
(g660
g2
Ntp1056
Rp1057
(dp1058
g14
I00
sg32
I01
sg197
F0.0
sg15
I00
sbsg654
g0
(g217
g2
Ntp1059
Rp1060
(dp1061
g14
I00
sg32
I01
sg197
I00
sg15
I00
sbsg788
g0
(g660
g2
Ntp1062
Rp1063
(dp1064
g14
I00
sg32
I01
sg197
F0.0
sg15
I00
sbsg650
g0
(g217
g2
Ntp1065
Rp1066
(dp1067
g14
I00
sg32
I01
sg197
I01
sg15
I00
sbsg795
g0
(g660
g2
Ntp1068
Rp1069
(dp1070
g14
I00
sg32
I01
sg197
F1.37
sg15
I00
sbsg799
g0
(g660
g2
Ntp1071
Rp1072
(dp1073
g14
I00
sg32
I01
sg197
F1.1
sg15
I00
sbsg206
g0
(g68
g2
Ntp1074
Rp1075
(dp1076
g14
I00
sg32
I01
sg15
I00
sg72
g210
sg74
g77
sg76
g77
sbsg11
(lp1077
g799
ag645
ag716
ag775
ag781
ag654
ag788
ag650
ag795
ag206
ag807
ag808
asg807
g0
(g809
g2
Ntp1078
Rp1079
(dp1080
g14
I00
sg32
I01
sg197
g813
sg15
I00
sbsg808
g0
(g217
g2
Ntp1081
Rp1082
(dp1083
g14
I00
sg32
I01
sg197
I00
sg15
I00
sbsbag0
(g145
g2
Ntp1084
Rp1085
(dp1086
g14
I00
sg32
I01
sg820
g0
(g660
g2
Ntp1087
Rp1088
(dp1089
g14
I00
sg32
I01
sg197
F2.5e-05
sg15
I00
sbsg15
I00
sg645
g0
(g193
g2
Ntp1090
Rp1091
(dp1092
g14
I00
sg32
I01
sg197
g827
sg15
I00
sbsg716
g0
(g660
g2
Ntp1093
Rp1094
(dp1095
g14
I00
sg32
I01
sg197
F1.479
sg15
I00
sbsg775
g0
(g68
g2
Ntp1096
Rp1097
(dp1098
g14
I00
sg32
I01
sg15
I00
sg72
S'photonIDValueMapProducer'
p1099
sg74
g77
sg76
S'phoNeutralHadronIsolation'
p1100
sbsg781
g0
(g660
g2
Ntp1101
Rp1102
(dp1103
g14
I00
sg32
I01
sg197
F0.014
sg15
I00
sbsg654
g0
(g217
g2
Ntp1104
Rp1105
(dp1106
g14
I00
sg32
I01
sg197
I00
sg15
I00
sbsg788
g0
(g660
g2
Ntp1107
Rp1108
(dp1109
g14
I00
sg32
I01
sg197
F0.0139
sg15
I00
sbsg650
g0
(g217
g2
Ntp1110
Rp1111
(dp1112
g14
I00
sg32
I01
sg197
I01
sg15
I00
sbsg795
g0
(g660
g2
Ntp1113
Rp1114
(dp1115
g14
I00
sg32
I01
sg197
F1.06
sg15
I00
sbsg799
g0
(g660
g2
Ntp1116
Rp1117
(dp1118
g14
I00
sg32
I01
sg197
F2.69
sg15
I00
sbsg206
g0
(g68
g2
Ntp1119
Rp1120
(dp1121
g14
I00
sg32
I01
sg15
I00
sg72
g210
sg74
g77
sg76
g77
sbsg11
(lp1122
g799
ag820
ag858
ag645
ag716
ag775
ag781
ag654
ag788
ag650
ag795
ag206
ag807
ag808
asg807
g0
(g809
g2
Ntp1123
Rp1124
(dp1125
g14
I00
sg32
I01
sg197
g862
sg15
I00
sbsg808
g0
(g217
g2
Ntp1126
Rp1127
(dp1128
g14
I00
sg32
I01
sg197
I00
sg15
I00
sbsg858
g0
(g660
g2
Ntp1129
Rp1130
(dp1131
g14
I00
sg32
I01
sg197
F1.9e-05
sg15
I00
sbsbag0
(g145
g2
Ntp1132
Rp1133
(dp1134
g14
I00
sg32
I01
sg15
I00
sg645
g0
(g193
g2
Ntp1135
Rp1136
(dp1137
g14
I00
sg32
I01
sg197
g771
sg15
I00
sbsg716
g0
(g660
g2
Ntp1138
Rp1139
(dp1140
g14
I00
sg32
I01
sg197
F1.479
sg15
I00
sbsg775
g0
(g68
g2
Ntp1141
Rp1142
(dp1143
g14
I00
sg32
I01
sg15
I00
sg72
S'photonIDValueMapProducer'
p1144
sg74
g77
sg76
S'phoPhotonIsolation'
p1145
sbsg781
g0
(g660
g2
Ntp1146
Rp1147
(dp1148
g14
I00
sg32
I01
sg197
F0.0053
sg15
I00
sbsg654
g0
(g217
g2
Ntp1149
Rp1150
(dp1151
g14
I00
sg32
I01
sg197
I00
sg15
I00
sbsg788
g0
(g660
g2
Ntp1152
Rp1153
(dp1154
g14
I00
sg32
I01
sg197
F0.0034
sg15
I00
sbsg650
g0
(g217
g2
Ntp1155
Rp1156
(dp1157
g14
I00
sg32
I01
sg197
I01
sg15
I00
sbsg795
g0
(g660
g2
Ntp1158
Rp1159
(dp1160
g14
I00
sg32
I01
sg197
F0.28
sg15
I00
sbsg799
g0
(g660
g2
Ntp1161
Rp1162
(dp1163
g14
I00
sg32
I01
sg197
F0.39
sg15
I00
sbsg206
g0
(g68
g2
Ntp1164
Rp1165
(dp1166
g14
I00
sg32
I01
sg15
I00
sg72
g210
sg74
g77
sg76
g77
sbsg11
(lp1167
g799
ag645
ag716
ag775
ag781
ag654
ag788
ag650
ag795
ag206
ag807
ag808
asg807
g0
(g809
g2
Ntp1168
Rp1169
(dp1170
g14
I00
sg32
I01
sg197
g908
sg15
I00
sbsg808
g0
(g217
g2
Ntp1171
Rp1172
(dp1173
g14
I00
sg32
I01
sg197
I00
sg15
I00
sbsbatp1174
Rp1175
(dp1176
g14
I00
sg32
I01
sg15
I00
sg33
I1
sbsg11
(lp1177
g635
ag640
asbsg15
I00
sg916
g0
(g193
g2
Ntp1178
Rp1179
(dp1180
g14
I00
sg32
I01
sg197
S'3c31de4198e6c34a0668e11fae83ac21'
p1181
sg15
I00
sbsg921
g0
(g217
g2
Ntp1182
Rp1183
(dp1184
g14
I00
sg32
I00
sg197
I01
sg15
I00
sbsg11
(lp1185
g631
ag916
ag921
asbag0
(g145
g2
Ntp1186
Rp1187
(dp1188
g14
I00
sg32
I01
sg631
g0
(g145
g2
Ntp1189
Rp1190
(dp1191
g14
I00
sg32
I01
sg15
I01
sg635
g0
(g193
g2
Ntp1192
Rp1193
(dp1194
g14
I00
sg32
I01
sg197
S'cutBasedPhotonID-Spring15-25ns-V1-standalone-tight'
p1195
sg15
I00
sbsg640
g0
(g143
g20
(lp1196
g0
(g145
g2
Ntp1197
Rp1198
(dp1199
g14
I00
sg32
I01
sg15
I00
sg645
g0
(g193
g2
Ntp1200
Rp1201
(dp1202
g14
I00
sg32
I01
sg197
g649
sg15
I00
sbsg650
g0
(g217
g2
Ntp1203
Rp1204
(dp1205
g14
I00
sg32
I01
sg197
I00
sg15
I00
sbsg654
g0
(g217
g2
Ntp1206
Rp1207
(dp1208
g14
I00
sg32
I01
sg197
I00
sg15
I00
sbsg11
(lp1209
g650
ag659
ag645
ag654
asg659
g0
(g660
g2
Ntp1210
Rp1211
(dp1212
g14
I00
sg32
I01
sg197
F5.0
sg15
I00
sbsbag0
(g145
g2
Ntp1213
Rp1214
(dp1215
g14
I00
sg32
I01
sg15
I00
sg645
g0
(g193
g2
Ntp1216
Rp1217
(dp1218
g14
I00
sg32
I01
sg197
g670
sg15
I00
sbsg650
g0
(g217
g2
Ntp1219
Rp1220
(dp1221
g14
I00
sg32
I01
sg197
I00
sg15
I00
sbsg654
g0
(g217
g2
Ntp1222
Rp1223
(dp1224
g14
I00
sg32
I01
sg197
I00
sg15
I00
sbsg677
g0
(g143
g20
(lp1225
g0
(g145
g2
Ntp1226
Rp1227
(dp1228
g14
I00
sg32
I01
sg15
I00
sg682
g0
(g660
g2
Ntp1229
Rp1230
(dp1231
g14
I00
sg32
I01
sg197
F1.479
sg15
I00
sbsg686
g0
(g660
g2
Ntp1232
Rp1233
(dp1234
g14
I00
sg32
I01
sg197
F0.0
sg15
I00
sbsg11
(lp1235
g682
ag686
asbag0
(g145
g2
Ntp1236
Rp1237
(dp1238
g14
I00
sg32
I01
sg15
I00
sg682
g0
(g660
g2
Ntp1239
Rp1240
(dp1241
g14
I00
sg32
I01
sg197
F2.5
sg15
I00
sbsg686
g0
(g660
g2
Ntp1242
Rp1243
(dp1244
g14
I00
sg32
I01
sg197
F1.479
sg15
I00
sbsg11
(lp1245
g682
ag686
asbatp1246
Rp1247
(dp1248
g14
I00
sg32
I01
sg15
I00
sg33
I1
sbsg11
(lp1249
g650
ag705
ag645
ag677
ag654
asg705
g0
(g217
g2
Ntp1250
Rp1251
(dp1252
g14
I00
sg32
I01
sg197
I01
sg15
I00
sbsbag0
(g145
g2
Ntp1253
Rp1254
(dp1255
g14
I00
sg32
I01
sg15
I00
sg645
g0
(g193
g2
Ntp1256
Rp1257
(dp1258
g14
I00
sg32
I01
sg197
g715
sg15
I00
sbsg716
g0
(g660
g2
Ntp1259
Rp1260
(dp1261
g14
I00
sg32
I01
sg197
F1.479
sg15
I00
sbsg650
g0
(g217
g2
Ntp1262
Rp1263
(dp1264
g14
I00
sg32
I01
sg197
I00
sg15
I00
sbsg723
g0
(g660
g2
Ntp1265
Rp1266
(dp1267
g14
I00
sg32
I01
sg197
F0.05
sg15
I00
sbsg727
g0
(g660
g2
Ntp1268
Rp1269
(dp1270
g14
I00
sg32
I01
sg197
F0.05
sg15
I00
sbsg11
(lp1271
g645
ag716
ag650
ag723
ag727
ag654
asg654
g0
(g217
g2
Ntp1272
Rp1273
(dp1274
g14
I00
sg32
I01
sg197
I00
sg15
I00
sbsbag0
(g145
g2
Ntp1275
Rp1276
(dp1277
g14
I00
sg32
I01
sg738
g0
(g660
g2
Ntp1278
Rp1279
(dp1280
g14
I00
sg32
I01
sg197
F0.0268
sg15
I00
sbsg742
g0
(g660
g2
Ntp1281
Rp1282
(dp1283
g14
I00
sg32
I01
sg197
F0.01
sg15
I00
sbsg15
I00
sg645
g0
(g193
g2
Ntp1284
Rp1285
(dp1286
g14
I00
sg32
I01
sg197
g749
sg15
I00
sbsg650
g0
(g217
g2
Ntp1287
Rp1288
(dp1289
g14
I00
sg32
I01
sg197
I00
sg15
I00
sbsg716
g0
(g660
g2
Ntp1290
Rp1291
(dp1292
g14
I00
sg32
I01
sg197
F1.479
sg15
I00
sbsg11
(lp1293
g738
ag742
ag645
ag650
ag716
ag214
ag654
asg214
g0
(g68
g2
Ntp1294
Rp1295
(dp1296
g14
I00
sg32
I01
sg15
I00
sg72
S'photonIDValueMapProducer'
p1297
sg74
g77
sg76
S'phoFull5x5SigmaIEtaIEta'
p1298
sbsg654
g0
(g217
g2
Ntp1299
Rp1300
(dp1301
g14
I00
sg32
I01
sg197
I00
sg15
I00
sbsbag0
(g145
g2
Ntp1302
Rp1303
(dp1304
g14
I00
sg32
I01
sg15
I00
sg645
g0
(g193
g2
Ntp1305
Rp1306
(dp1307
g14
I00
sg32
I01
sg197
g771
sg15
I00
sbsg716
g0
(g660
g2
Ntp1308
Rp1309
(dp1310
g14
I00
sg32
I01
sg197
F1.479
sg15
I00
sbsg775
g0
(g68
g2
Ntp1311
Rp1312
(dp1313
g14
I00
sg32
I01
sg15
I00
sg72
S'photonIDValueMapProducer'
p1314
sg74
g77
sg76
S'phoChargedIsolation'
p1315
sbsg781
g0
(g660
g2
Ntp1316
Rp1317
(dp1318
g14
I00
sg32
I01
sg197
F0.0
sg15
I00
sbsg654
g0
(g217
g2
Ntp1319
Rp1320
(dp1321
g14
I00
sg32
I01
sg197
I00
sg15
I00
sbsg788
g0
(g660
g2
Ntp1322
Rp1323
(dp1324
g14
I00
sg32
I01
sg197
F0.0
sg15
I00
sbsg650
g0
(g217
g2
Ntp1325
Rp1326
(dp1327
g14
I00
sg32
I01
sg197
I01
sg15
I00
sbsg795
g0
(g660
g2
Ntp1328
Rp1329
(dp1330
g14
I00
sg32
I01
sg197
F0.76
sg15
I00
sbsg799
g0
(g660
g2
Ntp1331
Rp1332
(dp1333
g14
I00
sg32
I01
sg197
F0.56
sg15
I00
sbsg206
g0
(g68
g2
Ntp1334
Rp1335
(dp1336
g14
I00
sg32
I01
sg15
I00
sg72
g210
sg74
g77
sg76
g77
sbsg11
(lp1337
g799
ag645
ag716
ag775
ag781
ag654
ag788
ag650
ag795
ag206
ag807
ag808
asg807
g0
(g809
g2
Ntp1338
Rp1339
(dp1340
g14
I00
sg32
I01
sg197
g813
sg15
I00
sbsg808
g0
(g217
g2
Ntp1341
Rp1342
(dp1343
g14
I00
sg32
I01
sg197
I00
sg15
I00
sbsbag0
(g145
g2
Ntp1344
Rp1345
(dp1346
g14
I00
sg32
I01
sg820
g0
(g660
g2
Ntp1347
Rp1348
(dp1349
g14
I00
sg32
I01
sg197
F2.5e-05
sg15
I00
sbsg15
I00
sg645
g0
(g193
g2
Ntp1350
Rp1351
(dp1352
g14
I00
sg32
I01
sg197
g827
sg15
I00
sbsg716
g0
(g660
g2
Ntp1353
Rp1354
(dp1355
g14
I00
sg32
I01
sg197
F1.479
sg15
I00
sbsg775
g0
(g68
g2
Ntp1356
Rp1357
(dp1358
g14
I00
sg32
I01
sg15
I00
sg72
S'photonIDValueMapProducer'
p1359
sg74
g77
sg76
S'phoNeutralHadronIsolation'
p1360
sbsg781
g0
(g660
g2
Ntp1361
Rp1362
(dp1363
g14
I00
sg32
I01
sg197
F0.014
sg15
I00
sbsg654
g0
(g217
g2
Ntp1364
Rp1365
(dp1366
g14
I00
sg32
I01
sg197
I00
sg15
I00
sbsg788
g0
(g660
g2
Ntp1367
Rp1368
(dp1369
g14
I00
sg32
I01
sg197
F0.0139
sg15
I00
sbsg650
g0
(g217
g2
Ntp1370
Rp1371
(dp1372
g14
I00
sg32
I01
sg197
I01
sg15
I00
sbsg795
g0
(g660
g2
Ntp1373
Rp1374
(dp1375
g14
I00
sg32
I01
sg197
F0.97
sg15
I00
sbsg799
g0
(g660
g2
Ntp1376
Rp1377
(dp1378
g14
I00
sg32
I01
sg197
F2.09
sg15
I00
sbsg206
g0
(g68
g2
Ntp1379
Rp1380
(dp1381
g14
I00
sg32
I01
sg15
I00
sg72
g210
sg74
g77
sg76
g77
sbsg11
(lp1382
g799
ag820
ag858
ag645
ag716
ag775
ag781
ag654
ag788
ag650
ag795
ag206
ag807
ag808
asg807
g0
(g809
g2
Ntp1383
Rp1384
(dp1385
g14
I00
sg32
I01
sg197
g862
sg15
I00
sbsg808
g0
(g217
g2
Ntp1386
Rp1387
(dp1388
g14
I00
sg32
I01
sg197
I00
sg15
I00
sbsg858
g0
(g660
g2
Ntp1389
Rp1390
(dp1391
g14
I00
sg32
I01
sg197
F1.9e-05
sg15
I00
sbsbag0
(g145
g2
Ntp1392
Rp1393
(dp1394
g14
I00
sg32
I01
sg15
I00
sg645
g0
(g193
g2
Ntp1395
Rp1396
(dp1397
g14
I00
sg32
I01
sg197
g771
sg15
I00
sbsg716
g0
(g660
g2
Ntp1398
Rp1399
(dp1400
g14
I00
sg32
I01
sg197
F1.479
sg15
I00
sbsg775
g0
(g68
g2
Ntp1401
Rp1402
(dp1403
g14
I00
sg32
I01
sg15
I00
sg72
S'photonIDValueMapProducer'
p1404
sg74
g77
sg76
S'phoPhotonIsolation'
p1405
sbsg781
g0
(g660
g2
Ntp1406
Rp1407
(dp1408
g14
I00
sg32
I01
sg197
F0.0053
sg15
I00
sbsg654
g0
(g217
g2
Ntp1409
Rp1410
(dp1411
g14
I00
sg32
I01
sg197
I00
sg15
I00
sbsg788
g0
(g660
g2
Ntp1412
Rp1413
(dp1414
g14
I00
sg32
I01
sg197
F0.0034
sg15
I00
sbsg650
g0
(g217
g2
Ntp1415
Rp1416
(dp1417
g14
I00
sg32
I01
sg197
I01
sg15
I00
sbsg795
g0
(g660
g2
Ntp1418
Rp1419
(dp1420
g14
I00
sg32
I01
sg197
F0.08
sg15
I00
sbsg799
g0
(g660
g2
Ntp1421
Rp1422
(dp1423
g14
I00
sg32
I01
sg197
F0.16
sg15
I00
sbsg206
g0
(g68
g2
Ntp1424
Rp1425
(dp1426
g14
I00
sg32
I01
sg15
I00
sg72
g210
sg74
g77
sg76
g77
sbsg11
(lp1427
g799
ag645
ag716
ag775
ag781
ag654
ag788
ag650
ag795
ag206
ag807
ag808
asg807
g0
(g809
g2
Ntp1428
Rp1429
(dp1430
g14
I00
sg32
I01
sg197
g908
sg15
I00
sbsg808
g0
(g217
g2
Ntp1431
Rp1432
(dp1433
g14
I00
sg32
I01
sg197
I00
sg15
I00
sbsbatp1434
Rp1435
(dp1436
g14
I00
sg32
I01
sg15
I00
sg33
I1
sbsg11
(lp1437
g635
ag640
asbsg15
I00
sg916
g0
(g193
g2
Ntp1438
Rp1439
(dp1440
g14
I00
sg32
I01
sg197
S'82ed54bcaf3c8d0ac4f2ae51aa8ff37d'
p1441
sg15
I00
sbsg921
g0
(g217
g2
Ntp1442
Rp1443
(dp1444
g14
I00
sg32
I00
sg197
I01
sg15
I00
sbsg11
(lp1445
g631
ag916
ag921
asbatp1446
Rp1447
(dp1448
g14
I00
sg32
I01
sg15
I00
sg33
I1
sbsg34
S'egmPhotonIDs'
p1449
sg35
S'VersionedPhotonIdProducer'
p1450
sbag0
(g50
g2
Ntp1451
Rp1452
(dp1453
g11
(lp1454
g55
ag56
ag63
ag58
ag61
ag62
aS'useFull5x5'
p1455
ag57
ag66
asg14
I00
sg56
g0
(g68
g2
Ntp1456
Rp1457
(dp1458
g14
I00
sg32
I01
sg15
I00
sg72
g73
sg74
g75
sg76
g77
sbsg15
I00
sg55
g0
(g68
g2
Ntp1459
Rp1460
(dp1461
g14
I00
sg32
I01
sg15
I00
sg72
g81
sg74
g77
sg76
g77
sbsg17
S'/cvmfs/cms.cern.ch/slc6_amd64_gcc530/cms/cmssw/CMSSW_8_0_25/python/RecoEgamma/PhotonIdentification/PhotonRegressionValueMapProducer_cfi.py'
p1462
sg58
g0
(g68
g2
Ntp1463
Rp1464
(dp1465
g14
I00
sg32
I01
sg15
I00
sg72
g89
sg74
g77
sg76
g77
sbsg57
g0
(g68
g2
Ntp1466
Rp1467
(dp1468
g14
I00
sg32
I01
sg15
I00
sg72
g116
sg74
g77
sg76
g77
sbsg61
g0
(g68
g2
Ntp1469
Rp1470
(dp1471
g14
I00
sg32
I01
sg15
I00
sg72
S'reducedEgamma'
p1472
sg74
g77
sg76
S'reducedEBRecHits'
p1473
sbsg62
g0
(g68
g2
Ntp1474
Rp1475
(dp1476
g14
I00
sg32
I01
sg15
I00
sg72
S'reducedEgamma'
p1477
sg74
g77
sg76
S'reducedEERecHits'
p1478
sbsg16
I21
sg1455
g0
(g217
g2
Ntp1479
Rp1480
(dp1481
g14
I00
sg32
I01
sg197
I00
sg15
I00
sbsg63
g0
(g68
g2
Ntp1482
Rp1483
(dp1484
g14
I00
sg32
I01
sg15
I00
sg72
S'reducedEgamma'
p1485
sg74
g77
sg76
S'reducedESRecHits'
p1486
sbsg34
S'photonRegressionValueMapProducer'
p1487
sg35
S'PhotonRegressionValueMapProducer'
p1488
sg66
g0
(g68
g2
Ntp1489
Rp1490
(dp1491
g14
I00
sg32
I01
sg15
I00
sg72
g130
sg74
g77
sg76
g77
sbsbasbsg15
I00
sg34
g38
sbssg288
g241
sS'_Process__source'
p1492
g0
(cFWCore.ParameterSet.Modules
Source
p1493
g2
Ntp1494
Rp1495
(dp1496
g11
(lp1497
S'fileNames'
p1498
asg14
I00
sg15
I00
sg16
I175
sg17
g18
sg1498
g0
(g19
g20
(lp1499
S'file:GGJets_M-1000To2000_Pt-50_13TeV-sherpa.root'
p1500
atp1501
Rp1502
(dp1503
g14
I00
sg32
I00
sg15
I00
sg33
I1
sbsg35
S'PoolSource'
p1504
sbsS'XMLFromDBSource'
p1505
g0
(g7
g2
Ntp1506
Rp1507
(dp1508
g11
(lp1509
S'rootDDName'
p1510
aS'label'
p1511
asg14
I00
sg15
I00
sg16
I40
sg17
g18
sg1510
g0
(g193
g2
Ntp1512
Rp1513
(dp1514
g14
I00
sg32
I01
sg197
S'cms:OCMS'
p1515
sg15
I00
sbsg1511
g0
(g193
g2
Ntp1516
Rp1517
(dp1518
g14
I00
sg32
I01
sg197
S'Extended'
p1519
sg15
I00
sbsg34
g1505
sg35
S'XMLIdealGeometryESProducer'
p1520
sbsS'TFileService'
p1521
g0
(cFWCore.ParameterSet.Modules
Service
p1522
g2
Ntp1523
Rp1524
(dp1525
g11
(lp1526
S'fileName'
p1527
asg14
I00
sg15
I00
sg16
I10
sg17
g18
sg1527
g0
(g193
g2
Ntp1528
Rp1529
(dp1530
g14
I00
sg32
I01
sg197
S'out_ADDGravToGG_MS-4000_NED-4_KK-1_M-500To1000_13TeV-sherpa_RunIISummer16MiniAODv2-PUMoriond17_80X_mcRun2_asymptotic_2016_TrancheIV_v6-v1_numEvent100.root'
p1531
sg15
I00
sbsg35
g1521
sbsS'hcalDDDSimConstants'
p1532
g0
(g7
g2
Ntp1533
Rp1534
(dp1535
g11
(lp1536
S'appendToDataLabel'
p1537
asg14
I00
sg1537
g0
(g193
g2
Ntp1538
Rp1539
(dp1540
g14
I00
sg32
I01
sg197
g77
sg15
I00
sbsg15
I00
sg16
I40
sg17
g18
sg34
g1532
sg35
S'HcalDDDSimConstantsESModule'
p1541
sbsS'source'
p1542
g1495
sS'xsec'
p1543
g0
(cFWCore.ParameterSet.Modules
EDAnalyzer
p1544
g2
Ntp1545
Rp1546
(dp1547
g11
(lp1548
sg14
I00
sg15
I00
sg16
I175
sg17
S'/afs/cern.ch/user/c/ciperez/CMSSW_8_0_25/src/diphoton-analysis/ExoDiPhotonAnalyzer/test/diphoton_cfg.py'
p1549
sg34
g1543
sg35
S'GenXSecAnalyzer'
p1550
sbsg205
g147
sg104
g52
sS'CaloTowerGeometryFromDBEP'
p1551
g0
(g7
g2
Ntp1552
Rp1553
(dp1554
g11
(lp1555
S'applyAlignment'
p1556
aS'hcalTopologyConstants'
p1557
asg14
I00
sg15
I01
sg16
I40
sg17
g18
sg1557
g0
(g145
g2
Ntp1558
Rp1559
(dp1560
g14
I00
sg32
I01
sg15
I00
sS'maxDepthHE'
p1561
g0
(cFWCore.ParameterSet.Types
int32
p1562
g2
Ntp1563
Rp1564
(dp1565
g14
I00
sg32
I01
sg197
I3
sg15
I00
sbsS'maxDepthHB'
p1566
g0
(g1562
g2
Ntp1567
Rp1568
(dp1569
g14
I00
sg32
I01
sg197
I2
sg15
I00
sbsg11
(lp1570
g1561
ag1566
aS'mode'
p1571
asg1571
g0
(g193
g2
Ntp1572
Rp1573
(dp1574
g14
I00
sg32
I01
sg197
S'HcalTopologyMode::LHC'
p1575
sg15
I00
sbsbsg34
g1551
sg1556
g0
(g217
g2
Ntp1576
Rp1577
(dp1578
g14
I00
sg32
I01
sg197
I00
sg15
I00
sbsg35
g1551
sbsS'mvaPhoID_Spring15_50ns_nonTrig_V2p1_wp90'
p1579
g0
(g145
g2
Ntp1580
Rp1581
(dp1582
g14
I00
sg32
I01
sg15
I01
sg635
g0
(g193
g2
Ntp1583
Rp1584
(dp1585
g14
I00
sg32
I01
sg197
S'mvaPhoID-Spring15-50ns-nonTrig-V2p1-wp90'
p1586
sg15
I00
sbsg640
g0
(g143
g20
(lp1587
g0
(g145
g2
Ntp1588
Rp1589
(dp1590
g14
I00
sg32
I01
sS'mvaValueMapName'
p1591
g0
(g68
g2
Ntp1592
Rp1593
(dp1594
g14
I00
sg32
I01
sg15
I00
sg72
S'photonMVAValueMapProducer'
p1595
sg74
g77
sg76
S'PhotonMVAEstimatorRun2Spring15NonTrig50nsV2p1Values'
p1596
sbsS'mvaCategoriesMapName'
p1597
g0
(g68
g2
Ntp1598
Rp1599
(dp1600
g14
I00
sg32
I01
sg15
I00
sg72
S'photonMVAValueMapProducer'
p1601
sg74
g77
sg76
S'PhotonMVAEstimatorRun2Spring15NonTrig50nsV2p1Categories'
p1602
sbsg645
g0
(g193
g2
Ntp1603
Rp1604
(dp1605
g14
I00
sg32
I01
sg197
S'PhoMVACut'
p1606
sg15
I00
sbsg650
g0
(g217
g2
Ntp1607
Rp1608
(dp1609
g14
I00
sg32
I01
sg197
I01
sg15
I00
sbsS'mvaCuts'
p1610
g0
(cFWCore.ParameterSet.Types
vdouble
p1611
g20
(lp1612
F0.29538
aF0.45837
atp1613
Rp1614
(dp1615
g14
I00
sg32
I01
sg15
I00
sbsg654
g0
(g217
g2
Ntp1616
Rp1617
(dp1618
g14
I00
sg32
I01
sg197
I00
sg15
I00
sbsg11
(lp1619
g1591
ag1597
ag645
ag650
ag1610
ag654
asg15
I00
sbatp1620
Rp1621
(dp1622
g14
I00
sg32
I01
sg15
I00
sg33
I1
sbsg921
g0
(g217
g2
Ntp1623
Rp1624
(dp1625
g14
I00
sg32
I00
sg197
I01
sg15
I00
sbsg11
(lp1626
g635
ag640
ag921
asg34
g1579
sbsS'_Process__InExtendCall'
p1627
I00
sS'_Process__producers'
p1628
(dp1629
g104
g52
sg615
g132
sg1487
g1452
sS'patJetCorrFactorsUpdatedJEC'
p1630
g0
(g50
g2
Ntp1631
Rp1632
(dp1633
g11
(lp1634
g55
aS'emf'
p1635
aS'extraJPTOffset'
p1636
aS'primaryVertices'
p1637
aS'levels'
p1638
aS'useNPV'
p1639
ag206
aS'useRho'
p1640
aS'payload'
p1641
aS'flavorType'
p1642
asg14
I00
sg1642
g0
(g193
g2
Ntp1643
Rp1644
(dp1645
g14
I00
sg32
I01
sg197
S'J'
p1646
sg15
I00
sbsg1635
g0
(g217
g2
Ntp1647
Rp1648
(dp1649
g14
I00
sg32
I01
sg197
I00
sg15
I00
sbsg15
I01
sg55
g0
(g68
g2
Ntp1650
Rp1651
(dp1652
g14
I00
sg32
I01
sg15
I00
sg72
S'slimmedJets'
p1653
sg74
g77
sg76
g77
sbsg17
S'/cvmfs/cms.cern.ch/slc6_amd64_gcc530/cms/cmssw/CMSSW_8_0_25/python/PhysicsTools/PatAlgos/tools/jetTools.py'
p1654
sg1636
g0
(g193
g2
Ntp1655
Rp1656
(dp1657
g14
I00
sg32
I01
sg197
S'L1FastJet'
p1658
sg15
I00
sbsg1637
g0
(g68
g2
Ntp1659
Rp1660
(dp1661
g14
I00
sg32
I01
sg15
I00
sg72
g125
sg74
g77
sg76
g77
sbsg34
g1630
sg1638
g0
(g19
g20
(lp1662
g1658
aS'L2Relative'
p1663
aS'L3Absolute'
p1664
atp1665
Rp1666
(dp1667
g14
I00
sg32
I01
sg15
I00
sg33
I1
sbsg16
I44
sg1639
g0
(g217
g2
Ntp1668
Rp1669
(dp1670
g14
I00
sg32
I01
sg197
I01
sg15
I00
sbsg206
g0
(g68
g2
Ntp1671
Rp1672
(dp1673
g14
I00
sg32
I01
sg15
I00
sg72
g210
sg74
g77
sg76
g77
sbsg1640
g0
(g217
g2
Ntp1674
Rp1675
(dp1676
g14
I00
sg32
I01
sg197
I01
sg15
I00
sbsg1641
g0
(g193
g2
Ntp1677
Rp1678
(dp1679
g14
I00
sg32
I01
sg197
S'AK4PFchs'
p1680
sg15
I00
sbsg35
S'JetCorrFactorsProducer'
p1681
sbsS'updatedPatJetsUpdatedJEC'
p1682
g0
(g50
g2
Ntp1683
Rp1684
(dp1685
g11
(lp1686
S'addTagInfos'
p1687
aS'jetSource'
p1688
aS'jetCorrFactorsSource'
p1689
aS'addDiscriminators'
p1690
aS'tagInfoSources'
p1691
aS'discriminatorSources'
p1692
aS'addBTagInfo'
p1693
aS'addJetCorrFactors'
p1694
aS'userData'
p1695
asg14
I00
sg15
I01
sg1688
g1651
sg17
g1654
sg1689
g0
(cFWCore.ParameterSet.Types
VInputTag
p1696
g20
(lp1697
g0
(g68
g2
Ntp1698
Rp1699
(dp1700
g14
I00
sg32
I01
sg15
I00
sg72
S'patJetCorrFactorsUpdatedJEC'
p1701
sg74
g77
sg76
g77
sbatp1702
Rp1703
(dp1704
g14
I00
sg32
I01
sg15
I00
sbsg1690
g0
(g217
g2
Ntp1705
Rp1706
(dp1707
g14
I00
sg32
I01
sg197
I01
sg15
I00
sbsg34
g1682
sg16
I1221
sg1691
g0
(g1696
g20
(lp1708
tp1709
Rp1710
(dp1711
g14
I00
sg32
I01
sg15
I00
sbsg1692
g0
(g1696
g20
(lp1712
tp1713
Rp1714
(dp1715
g14
I00
sg32
I01
sg15
I00
sbsg1693
g0
(g217
g2
Ntp1716
Rp1717
(dp1718
g14
I00
sg32
I01
sg197
I00
sg15
I01
sbsg1694
g0
(g217
g2
Ntp1719
Rp1720
(dp1721
g14
I00
sg32
I01
sg197
I01
sg15
I00
sbsg1695
g0
(g145
g2
Ntp1722
Rp1723
(dp1724
g14
I00
sg32
I01
sS'userCands'
p1725
g0
(g145
g2
Ntp1726
Rp1727
(dp1728
g14
I00
sg32
I01
sg55
g0
(g1696
g20
(lp1729
g77
atp1730
Rp1731
(dp1732
g14
I00
sg32
I01
sg15
I00
sbsg15
I00
sg11
(lp1733
g55
asbsg15
I00
sS'userInts'
p1734
g0
(g145
g2
Ntp1735
Rp1736
(dp1737
g14
I00
sg32
I01
sg55
g0
(g1696
g20
(lp1738
g77
atp1739
Rp1740
(dp1741
g14
I00
sg32
I01
sg15
I00
sbsg15
I00
sg11
(lp1742
g55
asbsS'userFloats'
p1743
g0
(g145
g2
Ntp1744
Rp1745
(dp1746
g14
I00
sg32
I01
sg55
g0
(g1696
g20
(lp1747
g77
atp1748
Rp1749
(dp1750
g14
I00
sg32
I01
sg15
I00
sbsg15
I00
sg11
(lp1751
g55
asbsg11
(lp1752
g1725
ag1734
ag1743
aS'userClasses'
p1753
aS'userFunctionLabels'
p1754
aS'userFunctions'
p1755
asg1753
g0
(g145
g2
Ntp1756
Rp1757
(dp1758
g14
I00
sg32
I01
sg55
g0
(g1696
g20
(lp1759
g77
atp1760
Rp1761
(dp1762
g14
I00
sg32
I01
sg15
I00
sbsg15
I00
sg11
(lp1763
g55
asbsg1754
g0
(g19
g20
(lp1764
tp1765
Rp1766
(dp1767
g14
I00
sg32
I01
sg15
I00
sg33
I1
sbsg1755
g0
(g19
g20
(lp1768
tp1769
Rp1770
(dp1771
g14
I00
sg32
I01
sg15
I00
sg33
I1
sbsbsg1687
g0
(g217
g2
Ntp1772
Rp1773
(dp1774
g14
I00
sg32
I01
sg197
I00
sg15
I00
sbsg35
S'PATJetUpdater'
p1775
sbsg1449
g618
ssS'siPixelQualityESProducer'
p1776
g0
(g7
g2
Ntp1777
Rp1778
(dp1779
g11
(lp1780
S'ListOfRecordToMerge'
p1781
asg14
I00
sg15
I01
sg16
I40
sg17
g18
sg1781
g0
(g143
g20
(lp1782
g0
(g145
g2
Ntp1783
Rp1784
(dp1785
g14
I00
sg32
I01
sg15
I00
sS'record'
p1786
g0
(g193
g2
Ntp1787
Rp1788
(dp1789
g14
I00
sg32
I01
sg197
S'SiPixelQualityFromDbRcd'
p1790
sg15
I00
sbsS'tag'
p1791
g0
(g193
g2
Ntp1792
Rp1793
(dp1794
g14
I00
sg32
I01
sg197
g77
sg15
I00
sbsg11
(lp1795
g1786
ag1791
asbag0
(g145
g2
Ntp1796
Rp1797
(dp1798
g14
I00
sg32
I01
sg15
I00
sg1786
g0
(g193
g2
Ntp1799
Rp1800
(dp1801
g14
I00
sg32
I01
sg197
S'SiPixelDetVOffRcd'
p1802
sg15
I00
sbsg1791
g0
(g193
g2
Ntp1803
Rp1804
(dp1805
g14
I00
sg32
I01
sg197
g77
sg15
I00
sbsg11
(lp1806
g1786
ag1791
asbatp1807
Rp1808
(dp1809
g14
I00
sg32
I01
sg15
I00
sg33
I1
sbsg34
g1776
sg35
S'SiPixelQualityESProducer'
p1810
sbsS'GlobalTag'
p1811
g0
(cFWCore.ParameterSet.Modules
ESSource
p1812
g2
Ntp1813
Rp1814
(dp1815
g11
(lp1816
S'DBParameters'
p1817
aS'connect'
p1818
aS'globaltag'
p1819
aS'RefreshEachRun'
p1820
aS'pfnPrefix'
p1821
aS'snapshotTime'
p1822
aS'toGet'
p1823
aS'pfnPostfix'
p1824
aS'RefreshAlways'
p1825
aS'ReconnectEachRun'
p1826
aS'RefreshOpenIOVs'
p1827
aS'DumpStat'
p1828
asg14
I00
sg17
S'/cvmfs/cms.cern.ch/slc6_amd64_gcc530/cms/cmssw/CMSSW_8_0_25/python/CondCore/ESSources/CondDBESSource_cfi.py'
p1829
sg15
I01
sg1819
g0
(g193
g2
Ntp1830
Rp1831
(dp1832
g14
I00
sg32
I01
sg197
S'80X_mcRun2_asymptotic_2016_TrancheIV_v8'
p1833
sg15
I01
sbsg1820
g0
(g217
g2
Ntp1834
Rp1835
(dp1836
g14
I00
sg32
I00
sg197
I00
sg15
I00
sbsg1821
g0
(g193
g2
Ntp1837
Rp1838
(dp1839
g14
I00
sg32
I00
sg197
g77
sg15
I00
sbsg1822
g0
(g193
g2
Ntp1840
Rp1841
(dp1842
g14
I00
sg32
I01
sg197
g77
sg15
I00
sbsg1823
g0
(g143
g20
(lp1843
tp1844
Rp1845
(dp1846
g14
I00
sg32
I01
sg15
I00
sg33
I1
sbsg1824
g0
(g193
g2
Ntp1847
Rp1848
(dp1849
g14
I00
sg32
I00
sg197
g77
sg15
I00
sbsg1817
g0
(g145
g2
Ntp1850
Rp1851
(dp1852
g14
I00
sg32
I01
sS'authenticationPath'
p1853
g0
(g193
g2
Ntp1854
Rp1855
(dp1856
g14
I00
sg32
I00
sg197
g77
sg15
I00
sbsg15
I00
sS'messageLevel'
p1857
g0
(g1562
g2
Ntp1858
Rp1859
(dp1860
g14
I00
sg32
I00
sg197
I0
sg15
I00
sbsg11
(lp1861
g1857
aS'security'
p1862
aS'authenticationSystem'
p1863
ag1853
asg1862
g0
(g193
g2
Ntp1864
Rp1865
(dp1866
g14
I00
sg32
I00
sg197
g77
sg15
I00
sbsg1863
g0
(g1562
g2
Ntp1867
Rp1868
(dp1869
g14
I00
sg32
I00
sg197
I0
sg15
I00
sbsbsg1825
g0
(g217
g2
Ntp1870
Rp1871
(dp1872
g14
I00
sg32
I00
sg197
I00
sg15
I00
sbsg16
I19
sg1818
g0
(g193
g2
Ntp1873
Rp1874
(dp1875
g14
I00
sg32
I01
sg197
S'frontier://FrontierProd/CMS_CONDITIONS'
p1876
sg15
I00
sbsg1826
g0
(g217
g2
Ntp1877
Rp1878
(dp1879
g14
I00
sg32
I00
sg197
I00
sg15
I00
sbsg34
g1811
sg1827
g0
(g217
g2
Ntp1880
Rp1881
(dp1882
g14
I00
sg32
I00
sg197
I00
sg15
I00
sbsg1828
g0
(g217
g2
Ntp1883
Rp1884
(dp1885
g14
I00
sg32
I00
sg197
I00
sg15
I00
sbsg35
S'PoolDBESSource'
p1886
sbsS'_Process__endpaths'
p1887
g0
(cFWCore.ParameterSet.DictTypes
SortedKeysDict
p1888
c__builtin__
dict
p1889
(dp1890
tp1891
Rp1892
(dp1893
S'list'
p1894
(lp1895
sbsS'p'
p1896
g0
(cFWCore.ParameterSet.SequenceTypes
Path
p1897
g2
Ntp1898
Rp1899
(dp1900
g14
I00
sg43
g0
(g44
g2
Ntp1901
Rp1902
(dp1903
g48
(lp1904
g41
ag0
(g1544
g2
Ntp1905
Rp1906
(dp1907
g14
I00
sg16
I171
sS'nEventsSample'
p1908
g0
(cFWCore.ParameterSet.Types
uint32
p1909
g2
Ntp1910
Rp1911
(dp1912
g14
I00
sg32
I01
sg197
I100000
sg15
I00
sbsS'phoLooseIdMap'
p1913
g0
(g68
g2
Ntp1914
Rp1915
(dp1916
g14
I00
sg32
I01
sg15
I00
sg72
S'egmPhotonIDs'
p1917
sg74
g77
sg76
S'cutBasedPhotonID-Spring15-25ns-V1-standalone-loose'
p1918
sbsS'photonsMiniAOD'
p1919
g0
(g68
g2
Ntp1920
Rp1921
(dp1922
g14
I00
sg32
I01
sg15
I00
sg72
g73
sg74
g77
sg76
g77
sbsS'genParticlesMiniAOD'
p1923
g0
(g68
g2
Ntp1924
Rp1925
(dp1926
g14
I00
sg32
I01
sg15
I00
sg72
S'prunedGenParticles'
p1927
sg74
g77
sg76
g77
sbsS'effAreaChHadFile'
p1928
g0
(g809
g2
Ntp1929
Rp1930
(dp1931
g14
I00
sg32
I01
sg197
S'RecoEgamma/PhotonIdentification/data/Spring15/effAreaPhotons_cone03_pfChargedHadrons_25ns_NULLcorrection.txt'
p1932
sg15
I00
sbsg35
S'ExoDiPhotonAnalyzer'
p1933
sg11
(lp1934
g1908
ag1913
ag1919
ag1923
ag1928
aS'isClosureTest'
p1935
aS'jetsMiniAOD'
p1936
aS'effAreaNeuHadFile'
p1937
aS'isolationConeR'
p1938
aS'phoTightIdMap'
p1939
aS'genInfo'
p1940
aS'outputFile'
p1941
aS'phoMediumIdMap'
p1942
aS'jetPtThreshold'
p1943
aS'minPhotonPt'
p1944
ag206
aS'isReMINIAOD'
p1945
aS'beamSpot'
p1946
ag60
aS'isMC'
p1947
aS'effAreaPhoFile'
p1948
aS'jetEtaThreshold'
p1949
asg1935
g0
(g217
g2
Ntp1950
Rp1951
(dp1952
g14
I00
sg32
I01
sg197
I00
sg15
I00
sbsg1936
g0
(g68
g2
Ntp1953
Rp1954
(dp1955
g14
I00
sg32
I01
sg15
I00
sg72
S'selectedUpdatedPatJetsUpdatedJEC'
p1956
sg74
g77
sg76
g77
sbsg17
g1549
sg1937
g0
(g809
g2
Ntp1957
Rp1958
(dp1959
g14
I00
sg32
I01
sg197
S'RecoEgamma/PhotonIdentification/data/Spring15/effAreaPhotons_cone03_pfNeutralHadrons_25ns_90percentBased.txt'
p1960
sg15
I00
sbsg1938
g0
(g660
g2
Ntp1961
Rp1962
(dp1963
g14
I00
sg32
I01
sg197
F0.3
sg15
I00
sbsg1939
g0
(g68
g2
Ntp1964
Rp1965
(dp1966
g14
I00
sg32
I01
sg15
I00
sg72
S'egmPhotonIDs'
p1967
sg74
g77
sg76
S'cutBasedPhotonID-Spring15-25ns-V1-standalone-tight'
p1968
sbsg1940
g0
(g68
g2
Ntp1969
Rp1970
(dp1971
g14
I00
sg32
I01
sg15
I00
sg72
S'generator'
p1972
sg74
S'SIM'
p1973
sg76
g77
sbsg1941
g0
(g193
g2
Ntp1974
Rp1975
(dp1976
g14
I00
sg32
I01
sg197
g1531
sg15
I00
sbsg1942
g0
(g68
g2
Ntp1977
Rp1978
(dp1979
g14
I00
sg32
I01
sg15
I00
sg72
S'egmPhotonIDs'
p1980
sg74
g77
sg76
S'cutBasedPhotonID-Spring15-25ns-V1-standalone-medium'
p1981
sbsg1943
g0
(g660
g2
Ntp1982
Rp1983
(dp1984
g14
I00
sg32
I01
sg197
F30.0
sg15
I00
sbsg1944
g0
(g660
g2
Ntp1985
Rp1986
(dp1987
g14
I00
sg32
I01
sg197
F75.0
sg15
I00
sbsg34
S'diphoton'
p1988
sg206
g0
(g68
g2
Ntp1989
Rp1990
(dp1991
g14
I00
sg32
I01
sg15
I00
sg72
S'fixedGridRhoAll'
p1992
sg74
g77
sg76
g77
sbsg1946
g0
(g68
g2
Ntp1993
Rp1994
(dp1995
g14
I00
sg32
I01
sg15
I00
sg72
S'offlineBeamSpot'
p1996
sg74
S'RECO'
p1997
sg76
g77
sbsg1945
g0
(g217
g2
Ntp1998
Rp1999
(dp2000
g14
I00
sg32
I01
sg197
I00
sg15
I00
sbsg15
I00
sg60
g0
(g68
g2
Ntp2001
Rp2002
(dp2003
g14
I00
sg32
I01
sg15
I00
sg72
g125
sg74
g77
sg76
g77
sbsg1947
g0
(g217
g2
Ntp2004
Rp2005
(dp2006
g14
I00
sg32
I01
sg197
I01
sg15
I00
sbsg1948
g0
(g809
g2
Ntp2007
Rp2008
(dp2009
g14
I00
sg32
I01
sg197
S'RecoEgamma/PhotonIdentification/data/Spring15/effAreaPhotons_cone03_pfPhotons_25ns_90percentBased.txt'
p2010
sg15
I00
sbsg1949
g0
(g660
g2
Ntp2011
Rp2012
(dp2013
g14
I00
sg32
I01
sg197
F2.5
sg15
I00
sbsbag1546
asbsg15
I00
sg34
g1896
sbsS'MuonDetLayerGeometryESProducer'
p2014
g0
(g7
g2
Ntp2015
Rp2016
(dp2017
g11
(lp2018
sg14
I00
sg15
I00
sg16
I40
sg17
g18
sg34
g2014
sg35
g2014
sbsS'EcalEndcapGeometryFromDBEP'
p2019
g0
(g7
g2
Ntp2020
Rp2021
(dp2022
g11
(lp2023
g1556
asg14
I00
sg15
I01
sg16
I40
sg17
g18
sg34
g2019
sg1556
g0
(g217
g2
Ntp2024
Rp2025
(dp2026
g14
I00
sg32
I01
sg197
I01
sg15
I01
sbsg35
g2019
sbsS'MessageLogger'
p2027
g0
(g1522
g2
Ntp2028
Rp2029
(dp2030
g14
I00
sS'suppressInfo'
p2031
g0
(g19
g20
(lp2032
tp2033
Rp2034
(dp2035
g14
I00
sg32
I00
sg15
I00
sg33
I1
sbsS'suppressDebug'
p2036
g0
(g19
g20
(lp2037
tp2038
Rp2039
(dp2040
g14
I00
sg32
I00
sg15
I00
sg33
I1
sbsS'cout'
p2041
g0
(g145
g2
Ntp2042
Rp2043
(dp2044
g14
I00
sg32
I00
sS'placeholder'
p2045
g0
(g217
g2
Ntp2046
Rp2047
(dp2048
g14
I00
sg32
I00
sg197
I01
sg15
I00
sbsg15
I00
sg11
(lp2049
g2045
asbsg16
I10
sS'debugModules'
p2050
g0
(g19
g20
(lp2051
tp2052
Rp2053
(dp2054
g14
I00
sg32
I00
sg15
I00
sg33
I1
sbsg35
g2027
sS'fwkJobReports'
p2055
g0
(g19
g20
(lp2056
S'FrameworkJobReport'
p2057
atp2058
Rp2059
(dp2060
g14
I00
sg32
I00
sg15
I00
sg33
I1
sbsg11
(lp2061
g2031
aS'debugs'
p2062
ag2036
ag2041
aS'cerr_stats'
p2063
aS'warnings'
p2064
aS'default'
p2065
aS'statistics'
p2066
aS'cerr'
p2067
ag2057
aS'suppressWarning'
p2068
aS'errors'
p2069
aS'destinations'
p2070
ag2050
aS'infos'
p2071
aS'categories'
p2072
ag2055
asg2066
g0
(g19
g20
(lp2073
g2063
atp2074
Rp2075
(dp2076
g14
I00
sg32
I00
sg15
I00
sg33
I1
sbsg17
g18
sg2070
g0
(g19
g20
(lp2077
g2064
ag2069
ag2071
ag2062
ag2041
ag2067
atp2078
Rp2079
(dp2080
g14
I00
sg32
I00
sg15
I00
sg33
I1
sbsg2062
g0
(g145
g2
Ntp2081
Rp2082
(dp2083
g14
I00
sg32
I00
sg2045
g0
(g217
g2
Ntp2084
Rp2085
(dp2086
g14
I00
sg32
I00
sg197
I01
sg15
I00
sbsg15
I00
sg11
(lp2087
g2045
asbsg2064
g0
(g145
g2
Ntp2088
Rp2089
(dp2090
g14
I00
sg32
I00
sg2045
g0
(g217
g2
Ntp2091
Rp2092
(dp2093
g14
I00
sg32
I00
sg197
I01
sg15
I00
sbsg15
I00
sg11
(lp2094
g2045
asbsg2069
g0
(g145
g2
Ntp2095
Rp2096
(dp2097
g14
I00
sg32
I00
sg2045
g0
(g217
g2
Ntp2098
Rp2099
(dp2100
g14
I00
sg32
I00
sg197
I01
sg15
I00
sbsg15
I00
sg11
(lp2101
g2045
asbsg2057
g0
(g145
g2
Ntp2102
Rp2103
(dp2104
g14
I00
sg32
I00
sg15
I00
sg2065
g0
(g145
g2
Ntp2105
Rp2106
(dp2107
g14
I00
sg32
I00
sS'limit'
p2108
g0
(g1562
g2
Ntp2109
Rp2110
(dp2111
g14
I00
sg32
I00
sg197
I0
sg15
I00
sbsg15
I00
sg11
(lp2112
g2108
asbsS'FwkJob'
p2113
g0
(g145
g2
Ntp2114
Rp2115
(dp2116
g14
I00
sg32
I00
sg15
I00
sg2108
g0
(g1562
g2
Ntp2117
Rp2118
(dp2119
g14
I00
sg32
I00
sg197
I10000000
sg15
I00
sbsg11
(lp2120
S'optionalPSet'
p2121
ag2108
asg2121
g0
(g217
g2
Ntp2122
Rp2123
(dp2124
g14
I00
sg32
I00
sg197
I01
sg15
I00
sbsbsg11
(lp2125
g2065
ag2121
ag2113
asg2121
g0
(g217
g2
Ntp2126
Rp2127
(dp2128
g14
I00
sg32
I00
sg197
I01
sg15
I00
sbsbsg2068
g0
(g19
g20
(lp2129
g1933
atp2130
Rp2131
(dp2132
g14
I00
sg32
I00
sg15
I00
sg33
I1
sbsg2071
g0
(g145
g2
Ntp2133
Rp2134
(dp2135
g14
I00
sg32
I00
sg15
I00
sS'Root_NoDictionary'
p2136
g0
(g145
g2
Ntp2137
Rp2138
(dp2139
g14
I00
sg32
I00
sg15
I00
sg2108
g0
(g1562
g2
Ntp2140
Rp2141
(dp2142
g14
I00
sg32
I00
sg197
I0
sg15
I00
sbsg11
(lp2143
g2121
ag2108
asg2121
g0
(g217
g2
Ntp2144
Rp2145
(dp2146
g14
I00
sg32
I00
sg197
I01
sg15
I00
sbsbsg11
(lp2147
g2121
ag2136
ag2045
asg2121
g0
(g217
g2
Ntp2148
Rp2149
(dp2150
g14
I00
sg32
I00
sg197
I01
sg15
I00
sbsg2045
g0
(g217
g2
Ntp2151
Rp2152
(dp2153
g14
I00
sg32
I00
sg197
I01
sg15
I00
sbsbsg2072
g0
(g19
g20
(lp2154
g2113
aS'FwkReport'
p2155
aS'FwkSummary'
p2156
ag2136
atp2157
Rp2158
(dp2159
g14
I00
sg32
I00
sg15
I00
sg33
I1
sbsg15
I00
sg2063
g0
(g145
g2
Ntp2160
Rp2161
(dp2162
g14
I00
sg32
I00
sg15
I00
sg2121
g0
(g217
g2
Ntp2163
Rp2164
(dp2165
g14
I00
sg32
I00
sg197
I01
sg15
I00
sbsg11
(lp2166
S'threshold'
p2167
aS'output'
p2168
ag2121
asg2167
g0
(g193
g2
Ntp2169
Rp2170
(dp2171
g14
I00
sg32
I00
sg197
S'WARNING'
p2172
sg15
I00
sbsg2168
g0
(g193
g2
Ntp2173
Rp2174
(dp2175
g14
I00
sg32
I00
sg197
g2067
sg15
I00
sbsbsg2065
g0
(g145
g2
Ntp2176
Rp2177
(dp2178
g14
I00
sg32
I00
sg15
I00
sg11
(lp2179
sbsg2067
g0
(g145
g2
Ntp2180
Rp2181
(dp2182
g14
I00
sg32
I00
sS'noTimeStamps'
p2183
g0
(g217
g2
Ntp2184
Rp2185
(dp2186
g14
I00
sg32
I00
sg197
I00
sg15
I00
sbsg2155
g0
(g145
g2
Ntp2187
Rp2188
(dp2189
g14
I00
sg32
I00
sg15
I01
sS'reportEvery'
p2190
g0
(g1562
g2
Ntp2191
Rp2192
(dp2193
g14
I00
sg32
I00
sg197
I100
sg15
I01
sbsg2108
g0
(g1562
g2
Ntp2194
Rp2195
(dp2196
g14
I00
sg32
I00
sg197
I10000000
sg15
I00
sbsg11
(lp2197
g2190
ag2121
ag2108
asg2121
g0
(g217
g2
Ntp2198
Rp2199
(dp2200
g14
I00
sg32
I00
sg197
I01
sg15
I00
sbsbsg15
I00
sg2065
g0
(g145
g2
Ntp2201
Rp2202
(dp2203
g14
I00
sg32
I00
sg2108
g0
(g1562
g2
Ntp2204
Rp2205
(dp2206
g14
I00
sg32
I00
sg197
I10000000
sg15
I00
sbsg15
I00
sg11
(lp2207
g2108
asbsg2136
g0
(g145
g2
Ntp2208
Rp2209
(dp2210
g14
I00
sg32
I00
sg15
I00
sg2108
g0
(g1562
g2
Ntp2211
Rp2212
(dp2213
g14
I00
sg32
I00
sg197
I0
sg15
I00
sbsg11
(lp2214
g2121
ag2108
asg2121
g0
(g217
g2
Ntp2215
Rp2216
(dp2217
g14
I00
sg32
I00
sg197
I01
sg15
I00
sbsbsS'INFO'
p2218
g0
(g145
g2
Ntp2219
Rp2220
(dp2221
g14
I00
sg32
I00
sg2108
g0
(g1562
g2
Ntp2222
Rp2223
(dp2224
g14
I00
sg32
I00
sg197
I0
sg15
I00
sbsg15
I00
sg11
(lp2225
g2108
asbsg2121
g0
(g217
g2
Ntp2226
Rp2227
(dp2228
g14
I00
sg32
I00
sg197
I01
sg15
I00
sbsg2113
g0
(g145
g2
Ntp2229
Rp2230
(dp2231
g14
I00
sg32
I00
sg15
I00
sg2108
g0
(g1562
g2
Ntp2232
Rp2233
(dp2234
g14
I00
sg32
I00
sg197
I0
sg15
I00
sbsg11
(lp2235
g2121
ag2108
asg2121
g0
(g217
g2
Ntp2236
Rp2237
(dp2238
g14
I00
sg32
I00
sg197
I01
sg15
I00
sbsbsg2156
g0
(g145
g2
Ntp2239
Rp2240
(dp2241
g14
I00
sg32
I00
sg15
I00
sg2190
g0
(g1562
g2
Ntp2242
Rp2243
(dp2244
g14
I00
sg32
I00
sg197
I1
sg15
I00
sbsg2108
g0
(g1562
g2
Ntp2245
Rp2246
(dp2247
g14
I00
sg32
I00
sg197
I10000000
sg15
I00
sbsg11
(lp2248
g2190
ag2121
ag2108
asg2121
g0
(g217
g2
Ntp2249
Rp2250
(dp2251
g14
I00
sg32
I00
sg197
I01
sg15
I00
sbsbsg11
(lp2252
g2218
ag2183
ag2155
ag2065
ag2136
ag2167
ag2113
ag2156
ag2121
asg2167
g0
(g193
g2
Ntp2253
Rp2254
(dp2255
g14
I00
sg32
I00
sg197
g2218
sg15
I00
sbsbsbsS'mvaPhoID_Spring15_50ns_nonTrig_V2_wp90'
p2256
g0
(g145
g2
Ntp2257
Rp2258
(dp2259
g14
I00
sg32
I01
sg15
I01
sg635
g0
(g193
g2
Ntp2260
Rp2261
(dp2262
g14
I00
sg32
I01
sg197
S'mvaPhoID-Spring15-50ns-nonTrig-V2-wp90'
p2263
sg15
I00
sbsg640
g0
(g143
g20
(lp2264
g0
(g145
g2
Ntp2265
Rp2266
(dp2267
g14
I00
sg32
I01
sg1591
g0
(g68
g2
Ntp2268
Rp2269
(dp2270
g14
I00
sg32
I01
sg15
I00
sg72
S'photonMVAValueMapProducer'
p2271
sg74
g77
sg76
S'PhotonMVAEstimatorRun2Spring15NonTrig50nsV2Values'
p2272
sbsg1597
g0
(g68
g2
Ntp2273
Rp2274
(dp2275
g14
I00
sg32
I01
sg15
I00
sg72
S'photonMVAValueMapProducer'
p2276
sg74
g77
sg76
S'PhotonMVAEstimatorRun2Spring15NonTrig50nsV2Categories'
p2277
sbsg645
g0
(g193
g2
Ntp2278
Rp2279
(dp2280
g14
I00
sg32
I01
sg197
g1606
sg15
I00
sbsg650
g0
(g217
g2
Ntp2281
Rp2282
(dp2283
g14
I00
sg32
I01
sg197
I01
sg15
I00
sbsg1610
g0
(g1611
g20
(lp2284
F0.29538
aF0.45837
atp2285
Rp2286
(dp2287
g14
I00
sg32
I01
sg15
I00
sbsg654
g0
(g217
g2
Ntp2288
Rp2289
(dp2290
g14
I00
sg32
I01
sg197
I00
sg15
I00
sbsg11
(lp2291
g1591
ag1597
ag645
ag650
ag1610
ag654
asg15
I00
sbatp2292
Rp2293
(dp2294
g14
I00
sg32
I01
sg15
I00
sg33
I1
sbsg921
g0
(g217
g2
Ntp2295
Rp2296
(dp2297
g14
I00
sg32
I00
sg197
I01
sg15
I00
sbsg11
(lp2298
g635
ag640
ag921
asg34
g2256
sbsg1630
g1632
sS'_Process__services'
p2299
(dp2300
g2027
g2029
sg1521
g1524
ssg584
g538
sS'CastorGeometryFromDBEP'
p2301
g0
(g7
g2
Ntp2302
Rp2303
(dp2304
g11
(lp2305
g1556
asg14
I00
sg15
I00
sg16
I40
sg17
g18
sg34
g2301
sg1556
g0
(g217
g2
Ntp2306
Rp2307
(dp2308
g14
I00
sg32
I01
sg197
I00
sg15
I00
sbsg35
g2301
sbsS'trackerGeometryDB'
p2309
g0
(g7
g2
Ntp2310
Rp2311
(dp2312
g11
(lp2313
g1537
aS'fromDDD'
p2314
ag1556
aS'alignmentsLabel'
p2315
asg14
I00
sg1537
g0
(g193
g2
Ntp2316
Rp2317
(dp2318
g14
I00
sg32
I01
sg197
g77
sg15
I00
sbsg15
I00
sg2315
g0
(g193
g2
Ntp2319
Rp2320
(dp2321
g14
I00
sg32
I01
sg197
g77
sg15
I00
sbsg17
g18
sg16
I40
sg34
g2309
sg2314
g0
(g217
g2
Ntp2322
Rp2323
(dp2324
g14
I00
sg32
I01
sg197
I00
sg15
I00
sbsg1556
g0
(g217
g2
Ntp2325
Rp2326
(dp2327
g14
I00
sg32
I01
sg197
I01
sg15
I00
sbsg35
S'TrackerDigiGeometryESModule'
p2328
sbsS'eegeom'
p2329
g0
(g1812
g2
Ntp2330
Rp2331
(dp2332
g11
(lp2333
S'iovIsRunNotTime'
p2334
aS'recordName'
p2335
aS'firstValid'
p2336
asg14
I00
sg15
I00
sg16
I6
sg2335
g0
(g193
g2
Ntp2337
Rp2338
(dp2339
g14
I00
sg32
I01
sg197
S'EcalMappingRcd'
p2340
sg15
I00
sbsg17
S'/cvmfs/cms.cern.ch/slc6_amd64_gcc530/cms/cmssw/CMSSW_8_0_25/python/Geometry/EcalMapping/EcalMappingRecord_cfi.py'
p2341
sg2336
g0
(cFWCore.ParameterSet.Types
vuint32
p2342
g20
(lp2343
I1
atp2344
Rp2345
(dp2346
g14
I00
sg32
I01
sg15
I00
sbsg34
g2329
sg2334
g0
(g217
g2
Ntp2347
Rp2348
(dp2349
g14
I00
sg32
I01
sg197
I01
sg15
I00
sbsg35
S'EmptyESSource'
p2350
sbsg614
g612
sS'_Process__vpsets'
p2351
(dp2352
g614
g612
ssg1956
g0
(cFWCore.ParameterSet.Modules
EDFilter
p2353
g2
Ntp2354
Rp2355
(dp2356
g11
(lp2357
g55
aS'cut'
p2358
asg14
I00
sg2358
g0
(g193
g2
Ntp2359
Rp2360
(dp2361
g14
I00
sg32
I01
sg197
g77
sg15
I00
sbsg15
I00
sg55
g0
(g68
g2
Ntp2362
Rp2363
(dp2364
g14
I00
sg32
I01
sg15
I01
sg72
S'updatedPatJetsUpdatedJEC'
p2365
sg76
g77
sg74
g77
sbsg17
g1654
sg16
I1230
sg34
g1956
sg35
S'PATJetSelector'
p2366
sbsS'EcalTrigTowerConstituentsMapBuilder'
p2367
g0
(g7
g2
Ntp2368
Rp2369
(dp2370
g11
(lp2371
S'MapFile'
p2372
asg14
I00
sg15
I00
sg2372
g0
(g193
g2
Ntp2373
Rp2374
(dp2375
g14
I00
sg32
I00
sg197
S'Geometry/EcalMapping/data/EndCap_TTMap.txt'
p2376
sg15
I00
sbsg17
g18
sg16
I40
sg34
g2367
sg35
g2367
sbsS'siStripBackPlaneCorrectionDepESProducer'
p2377
g0
(g7
g2
Ntp2378
Rp2379
(dp2380
g11
(lp2381
S'LatencyRecord'
p2382
aS'BackPlaneCorrectionDeconvMode'
p2383
aS'BackPlaneCorrectionPeakMode'
p2384
asg14
I00
sg15
I00
sg16
I40
sg17
g18
sg2382
g0
(g145
g2
Ntp2385
Rp2386
(dp2387
g14
I00
sg32
I01
sg15
I00
sg1511
g0
(g193
g2
Ntp2388
Rp2389
(dp2390
g14
I00
sg32
I00
sg197
g77
sg15
I00
sbsg1786
g0
(g193
g2
Ntp2391
Rp2392
(dp2393
g14
I00
sg32
I01
sg197
S'SiStripLatencyRcd'
p2394
sg15
I00
sbsg11
(lp2395
g1786
ag1511
asbsg2384
g0
(g145
g2
Ntp2396
Rp2397
(dp2398
g14
I00
sg32
I01
sg15
I00
sg1511
g0
(g193
g2
Ntp2399
Rp2400
(dp2401
g14
I00
sg32
I00
sg197
S'peak'
p2402
sg15
I00
sbsg1786
g0
(g193
g2
Ntp2403
Rp2404
(dp2405
g14
I00
sg32
I01
sg197
S'SiStripBackPlaneCorrectionRcd'
p2406
sg15
I00
sbsg11
(lp2407
g1786
ag1511
asbsg34
g2377
sg2383
g0
(g145
g2
Ntp2408
Rp2409
(dp2410
g14
I00
sg32
I01
sg15
I00
sg1511
g0
(g193
g2
Ntp2411
Rp2412
(dp2413
g14
I00
sg32
I00
sg197
S'deconvolution'
p2414
sg15
I00
sbsg1786
g0
(g193
g2
Ntp2415
Rp2416
(dp2417
g14
I00
sg32
I01
sg197
g2406
sg15
I00
sbsg11
(lp2418
g1786
ag1511
asbsg35
S'SiStripBackPlaneCorrectionDepESProducer'
p2419
sbsS'mvaPhoID_Spring15_25ns_nonTrig_V2_wp90'
p2420
g0
(g145
g2
Ntp2421
Rp2422
(dp2423
g14
I00
sg32
I01
sg15
I01
sg635
g0
(g193
g2
Ntp2424
Rp2425
(dp2426
g14
I00
sg32
I01
sg197
S'mvaPhoID-Spring15-25ns-nonTrig-V2-wp90'
p2427
sg15
I00
sbsg640
g0
(g143
g20
(lp2428
g0
(g145
g2
Ntp2429
Rp2430
(dp2431
g14
I00
sg32
I01
sg1591
g0
(g68
g2
Ntp2432
Rp2433
(dp2434
g14
I00
sg32
I01
sg15
I00
sg72
S'photonMVAValueMapProducer'
p2435
sg74
g77
sg76
S'PhotonMVAEstimatorRun2Spring15NonTrig25nsV2Values'
p2436
sbsg1597
g0
(g68
g2
Ntp2437
Rp2438
(dp2439
g14
I00
sg32
I01
sg15
I00
sg72
S'photonMVAValueMapProducer'
p2440
sg74
g77
sg76
S'PhotonMVAEstimatorRun2Spring15NonTrig25nsV2Categories'
p2441
sbsg645
g0
(g193
g2
Ntp2442
Rp2443
(dp2444
g14
I00
sg32
I01
sg197
g1606
sg15
I00
sbsg650
g0
(g217
g2
Ntp2445
Rp2446
(dp2447
g14
I00
sg32
I01
sg197
I01
sg15
I00
sbsg1610
g0
(g1611
g20
(lp2448
F0.374
aF0.336
atp2449
Rp2450
(dp2451
g14
I00
sg32
I01
sg15
I00
sbsg654
g0
(g217
g2
Ntp2452
Rp2453
(dp2454
g14
I00
sg32
I01
sg197
I00
sg15
I00
sbsg11
(lp2455
g1591
ag1597
ag645
ag650
ag1610
ag654
asg15
I00
sbatp2456
Rp2457
(dp2458
g14
I00
sg32
I01
sg15
I00
sg33
I1
sbsg921
g0
(g217
g2
Ntp2459
Rp2460
(dp2461
g14
I00
sg32
I00
sg197
I01
sg15
I00
sbsg11
(lp2462
g635
ag640
ag921
asg34
g2420
sbsS'_Process__esprefers'
p2463
(dp2464
S'es_prefer_hcalHardcode'
p2465
g0
(cFWCore.ParameterSet.Modules
ESPrefer
p2466
g2
Ntp2467
Rp2468
(dp2469
g11
(lp2470
sg14
I00
sg15
I00
sS'_targetLabel'
p2471
S'es_hardcode'
p2472
sg16
I73
sg17
g18
sg34
g2465
sg35
S'HcalHardcodeCalibrations'
p2473
sbssS'_Process__isStrict'
p2474
I00
sS'_Process__outputmodules'
p2475
(dp2476
sS'_Process__analyzers'
p2477
(dp2478
g1543
g1546
sg1988
g1906
ssS'idealForDigiTrackerGeometry'
p2479
g0
(g7
g2
Ntp2480
Rp2481
(dp2482
g11
(lp2483
g1537
ag2314
ag1556
ag2315
asg14
I00
sg1537
g0
(g193
g2
Ntp2484
Rp2485
(dp2486
g14
I00
sg32
I01
sg197
S'idealForDigi'
p2487
sg15
I01
sbsg15
I01
sg2315
g0
(g193
g2
Ntp2488
Rp2489
(dp2490
g14
I00
sg32
I01
sg197
S'fakeForIdeal'
p2491
sg15
I01
sbsg17
S'/cvmfs/cms.cern.ch/slc6_amd64_gcc530/cms/cmssw/CMSSW_8_0_25/python/Geometry/TrackerGeometryBuilder/idealForDigiTrackerGeometryDB_cff.py'
p2492
sg16
I8
sg34
g2479
sg2314
g0
(g217
g2
Ntp2493
Rp2494
(dp2495
g14
I00
sg32
I01
sg197
I00
sg15
I00
sbsg1556
g0
(g217
g2
Ntp2496
Rp2497
(dp2498
g14
I00
sg32
I01
sg197
I00
sg15
I01
sbsg35
g2328
sbsg436
g390
sS'_Process__looper'
p2499
NsS'_Process__paths'
p2500
g0
(g1888
g1889
(dp2501
g1896
g1899
stp2502
Rp2503
(dp2504
g1894
(lp2505
g1896
asbsS'MuonNumberingInitialization'
p2506
g0
(g7
g2
Ntp2507
Rp2508
(dp2509
g11
(lp2510
sg14
I00
sg15
I00
sg16
I40
sg17
g18
sg34
g2506
sg35
g2506
sbsS'options'
p2511
g0
(g145
g2
Ntp2512
Rp2513
(dp2514
g14
I00
sg32
I00
sg15
I01
sS'wantSummary'
p2515
g0
(g217
g2
Ntp2516
Rp2517
(dp2518
g14
I00
sg32
I00
sg197
I01
sg15
I00
sbsg11
(lp2519
g2515
aS'allowUnscheduled'
p2520
asg34
g2511
sg2520
g0
(g217
g2
Ntp2521
Rp2522
(dp2523
g14
I00
sg32
I00
sg197
I01
sg15
I00
sbsbsg615
g132
sg1487
g1452
sS'DTGeometryESModule'
p2524
g0
(g7
g2
Ntp2525
Rp2526
(dp2527
g11
(lp2528
g1537
ag2314
ag1556
ag2315
asg14
I00
sg1537
g0
(g193
g2
Ntp2529
Rp2530
(dp2531
g14
I00
sg32
I01
sg197
g77
sg15
I00
sbsg15
I00
sg2315
g0
(g193
g2
Ntp2532
Rp2533
(dp2534
g14
I00
sg32
I01
sg197
g77
sg15
I00
sbsg17
g18
sg16
I40
sg34
g2524
sg2314
g0
(g217
g2
Ntp2535
Rp2536
(dp2537
g14
I00
sg32
I01
sg197
I00
sg15
I00
sbsg1556
g0
(g217
g2
Ntp2538
Rp2539
(dp2540
g14
I00
sg32
I01
sg197
I01
sg15
I00
sbsg35
g2524
sbsS'CaloTopologyBuilder'
p2541
g0
(g7
g2
Ntp2542
Rp2543
(dp2544
g11
(lp2545
sg14
I00
sg15
I00
sg16
I40
sg17
g18
sg34
g2541
sg35
g2541
sbsS'mvaPhoID_Spring15_25ns_nonTrig_V2p1_wp90'
p2546
g0
(g145
g2
Ntp2547
Rp2548
(dp2549
g14
I00
sg32
I01
sg15
I01
sg635
g0
(g193
g2
Ntp2550
Rp2551
(dp2552
g14
I00
sg32
I01
sg197
S'mvaPhoID-Spring15-25ns-nonTrig-V2p1-wp90'
p2553
sg15
I00
sbsg640
g0
(g143
g20
(lp2554
g0
(g145
g2
Ntp2555
Rp2556
(dp2557
g14
I00
sg32
I01
sg1591
g0
(g68
g2
Ntp2558
Rp2559
(dp2560
g14
I00
sg32
I01
sg15
I00
sg72
S'photonMVAValueMapProducer'
p2561
sg74
g77
sg76
S'PhotonMVAEstimatorRun2Spring15NonTrig25nsV2p1Values'
p2562
sbsg1597
g0
(g68
g2
Ntp2563
Rp2564
(dp2565
g14
I00
sg32
I01
sg15
I00
sg72
S'photonMVAValueMapProducer'
p2566
sg74
g77
sg76
S'PhotonMVAEstimatorRun2Spring15NonTrig25nsV2p1Categories'
p2567
sbsg645
g0
(g193
g2
Ntp2568
Rp2569
(dp2570
g14
I00
sg32
I01
sg197
g1606
sg15
I00
sbsg650
g0
(g217
g2
Ntp2571
Rp2572
(dp2573
g14
I00
sg32
I01
sg197
I01
sg15
I00
sbsg1610
g0
(g1611
g20
(lp2574
F0.374
aF0.336
atp2575
Rp2576
(dp2577
g14
I00
sg32
I01
sg15
I00
sbsg654
g0
(g217
g2
Ntp2578
Rp2579
(dp2580
g14
I00
sg32
I01
sg197
I00
sg15
I00
sbsg11
(lp2581
g1591
ag1597
ag645
ag650
ag1610
ag654
asg15
I00
sbatp2582
Rp2583
(dp2584
g14
I00
sg32
I01
sg15
I00
sg33
I1
sbsg921
g0
(g217
g2
Ntp2585
Rp2586
(dp2587
g14
I00
sg32
I00
sg197
I01
sg15
I00
sbsg11
(lp2588
g635
ag640
ag921
asg34
g2546
sbsg1449
g618
sg1988
g1906
sS'SiStripRecHitMatcherESProducer'
p2589
g0
(g7
g2
Ntp2590
Rp2591
(dp2592
g11
(lp2593
S'PreFilter'
p2594
aS'ComponentName'
p2595
aS'NSigmaInside'
p2596
asg14
I00
sg15
I00
sg17
g18
sg2595
g0
(g193
g2
Ntp2597
Rp2598
(dp2599
g14
I00
sg32
I01
sg197
S'StandardMatcher'
p2600
sg15
I00
sbsg2594
g0
(g217
g2
Ntp2601
Rp2602
(dp2603
g14
I00
sg32
I01
sg197
I00
sg15
I00
sbsg16
I40
sg2596
g0
(g660
g2
Ntp2604
Rp2605
(dp2606
g14
I00
sg32
I01
sg197
F3.0
sg15
I00
sbsg34
g2589
sg35
g2589
sbsS'_Process__psets'
p2607
(dp2608
g2256
g2258
sg2420
g2422
sg288
g241
sS'mvaPhoID_PHYS14_PU20bx25_nonTrig_V1_wp90'
p2609
g0
(g145
g2
Ntp2610
Rp2611
(dp2612
g14
I00
sg32
I01
sg15
I01
sg635
g0
(g193
g2
Ntp2613
Rp2614
(dp2615
g14
I00
sg32
I01
sg197
S'mvaPhoID-PHYS14-PU20bx25-nonTrig-V1-wp90'
p2616
sg15
I00
sbsg640
g0
(g143
g20
(lp2617
g0
(g145
g2
Ntp2618
Rp2619
(dp2620
g14
I00
sg32
I01
sg1591
g0
(g68
g2
Ntp2621
Rp2622
(dp2623
g14
I00
sg32
I01
sg15
I00
sg72
S'photonMVAValueMapProducer'
p2624
sg74
g77
sg76
S'PhotonMVAEstimatorRun2Phys14NonTrig25nsV1Values'
p2625
sbsg1597
g0
(g68
g2
Ntp2626
Rp2627
(dp2628
g14
I00
sg32
I01
sg15
I00
sg72
S'photonMVAValueMapProducer'
p2629
sg74
g77
sg76
S'PhotonMVAEstimatorRun2Phys14NonTrig25nsV1Categories'
p2630
sbsg645
g0
(g193
g2
Ntp2631
Rp2632
(dp2633
g14
I00
sg32
I01
sg197
g1606
sg15
I00
sbsg650
g0
(g217
g2
Ntp2634
Rp2635
(dp2636
g14
I00
sg32
I01
sg197
I01
sg15
I00
sbsg1610
g0
(g1611
g20
(lp2637
F0.593
aF0.679
atp2638
Rp2639
(dp2640
g14
I00
sg32
I01
sg15
I00
sbsg654
g0
(g217
g2
Ntp2641
Rp2642
(dp2643
g14
I00
sg32
I01
sg197
I00
sg15
I00
sbsg11
(lp2644
g1591
ag1597
ag645
ag650
ag1610
ag654
asg15
I00
sbatp2645
Rp2646
(dp2647
g14
I00
sg32
I01
sg15
I00
sg33
I1
sbsg921
g0
(g217
g2
Ntp2648
Rp2649
(dp2650
g14
I00
sg32
I00
sg197
I01
sg15
I00
sbsg11
(lp2651
g635
ag640
ag921
asg34
g2609
sbsg584
g538
sS'maxEvents'
p2652
g0
(g145
g2
Ntp2653
Rp2654
(dp2655
g14
I00
sg32
I00
sg15
I00
sg11
(lp2656
S'input'
p2657
asg34
g2652
sg2657
g0
(g1562
g2
Ntp2658
Rp2659
(dp2660
g14
I00
sg32
I00
sg197
I100
sg15
I00
sbsbsg1579
g1581
sg510
g464
sg2546
g2548
sg362
g316
sS'mvaPhoID_Spring15_50ns_nonTrig_V1_wp90'
p2661
g0
(g145
g2
Ntp2662
Rp2663
(dp2664
g14
I00
sg32
I01
sg15
I01
sg635
g0
(g193
g2
Ntp2665
Rp2666
(dp2667
g14
I00
sg32
I01
sg197
S'mvaPhoID-Spring15-50ns-nonTrig-V1-wp90'
p2668
sg15
I00
sbsg640
g0
(g143
g20
(lp2669
g0
(g145
g2
Ntp2670
Rp2671
(dp2672
g14
I00
sg32
I01
sg1591
g0
(g68
g2
Ntp2673
Rp2674
(dp2675
g14
I00
sg32
I01
sg15
I00
sg72
S'photonMVAValueMapProducer'
p2676
sg74
g77
sg76
S'PhotonMVAEstimatorRun2Spring15NonTrig50nsV1Values'
p2677
sbsg1597
g0
(g68
g2
Ntp2678
Rp2679
(dp2680
g14
I00
sg32
I01
sg15
I00
sg72
S'photonMVAValueMapProducer'
p2681
sg74
g77
sg76
S'PhotonMVAEstimatorRun2Spring15NonTrig50nsV1Categories'
p2682
sbsg645
g0
(g193
g2
Ntp2683
Rp2684
(dp2685
g14
I00
sg32
I01
sg197
g1606
sg15
I00
sbsg650
g0
(g217
g2
Ntp2686
Rp2687
(dp2688
g14
I00
sg32
I01
sg197
I01
sg15
I00
sbsg1610
g0
(g1611
g20
(lp2689
F0.284
aF0.432
atp2690
Rp2691
(dp2692
g14
I00
sg32
I01
sg15
I00
sbsg654
g0
(g217
g2
Ntp2693
Rp2694
(dp2695
g14
I00
sg32
I01
sg197
I00
sg15
I00
sbsg11
(lp2696
g1591
ag1597
ag645
ag650
ag1610
ag654
asg15
I00
sbatp2697
Rp2698
(dp2699
g14
I00
sg32
I01
sg15
I00
sg33
I1
sbsg921
g0
(g217
g2
Ntp2700
Rp2701
(dp2702
g14
I00
sg32
I00
sg197
I00
sg15
I00
sbsg11
(lp2703
g635
ag640
ag921
asg34
g2661
sbsg2511
g2513
sg205
g147
sg436
g390
ssS'_Process__essources'
p2704
(dp2705
g2329
g2331
sg2472
g0
(g1812
g2
Ntp2706
Rp2707
(dp2708
g11
(lp2709
S'HERecalibration'
p2710
ag1823
aS'GainWidthsForTrigPrims'
p2711
aS'HEreCalibCutoff'
p2712
aS'HFRecalibration'
p2713
aS'iLumi'
p2714
aS'testHFQIE10'
p2715
asg14
I00
sg15
I00
sg16
I18
sg2710
g0
(g217
g2
Ntp2716
Rp2717
(dp2718
g14
I00
sg32
I01
sg197
I00
sg15
I00
sbsg1823
g0
(g19
g20
(lp2719
S'GainWidths'
p2720
atp2721
Rp2722
(dp2723
g14
I00
sg32
I00
sg15
I00
sg33
I1
sbsg2711
g0
(g217
g2
Ntp2724
Rp2725
(dp2726
g14
I00
sg32
I01
sg197
I00
sg15
I00
sbsg2712
g0
(g660
g2
Ntp2727
Rp2728
(dp2729
g14
I00
sg32
I01
sg197
F20.0
sg15
I00
sbsg2713
g0
(g217
g2
Ntp2730
Rp2731
(dp2732
g14
I00
sg32
I01
sg197
I00
sg15
I00
sbsg17
S'/cvmfs/cms.cern.ch/slc6_amd64_gcc530/cms/cmssw/CMSSW_8_0_25/python/CalibCalorimetry/HcalPlugins/Hcal_Conditions_forGlobalTag_cff.py'
p2733
sg34
g2472
sg2714
g0
(g660
g2
Ntp2734
Rp2735
(dp2736
g14
I00
sg32
I01
sg197
F-1.0
sg15
I00
sbsg2715
g0
(g217
g2
Ntp2737
Rp2738
(dp2739
g14
I00
sg32
I01
sg197
I00
sg15
I00
sbsg35
g2473
sbsg1811
g1814
ssg1504
g1495
sg2652
g2654
sS'CSCGeometryESModule'
p2740
g0
(g7
g2
Ntp2741
Rp2742
(dp2743
g11
(lp2744
g1537
aS'useDDD'
p2745
aS'debugV'
p2746
aS'useGangedStripsInME1a'
p2747
ag2315
aS'useOnlyWiresInME1a'
p2748
aS'useRealWireGeometry'
p2749
aS'useCentreTIOffsets'
p2750
ag1556
asg14
I00
sg1537
g0
(g193
g2
Ntp2751
Rp2752
(dp2753
g14
I00
sg32
I01
sg197
g77
sg15
I00
sbsg15
I00
sg2746
g0
(g217
g2
Ntp2754
Rp2755
(dp2756
g14
I00
sg32
I00
sg197
I00
sg15
I00
sbsg17
g18
sg2747
g0
(g217
g2
Ntp2757
Rp2758
(dp2759
g14
I00
sg32
I01
sg197
I01
sg15
I00
sbsg2315
g0
(g193
g2
Ntp2760
Rp2761
(dp2762
g14
I00
sg32
I01
sg197
g77
sg15
I00
sbsg2748
g0
(g217
g2
Ntp2763
Rp2764
(dp2765
g14
I00
sg32
I01
sg197
I00
sg15
I00
sbsg2745
g0
(g217
g2
Ntp2766
Rp2767
(dp2768
g14
I00
sg32
I01
sg197
I00
sg15
I00
sbsg16
I40
sg2750
g0
(g217
g2
Ntp2769
Rp2770
(dp2771
g14
I00
sg32
I01
sg197
I00
sg15
I00
sbsg34
g2740
sg2749
g0
(g217
g2
Ntp2772
Rp2773
(dp2774
g14
I00
sg32
I01
sg197
I01
sg15
I00
sbsg1556
g0
(g217
g2
Ntp2775
Rp2776
(dp2777
g14
I00
sg32
I01
sg197
I01
sg15
I00
sbsg35
g2740
sbsS'EcalBarrelGeometryFromDBEP'
p2778
g0
(g7
g2
Ntp2779
Rp2780
(dp2781
g11
(lp2782
g1556
asg14
I00
sg15
I01
sg16
I40
sg17
g18
sg34
g2778
sg1556
g0
(g217
g2
Ntp2783
Rp2784
(dp2785
g14
I00
sg32
I01
sg197
I01
sg15
I01
sbsg35
g2778
sbsS'trackerNumberingGeometryDB'
p2786
g0
(g7
g2
Ntp2787
Rp2788
(dp2789
g11
(lp2790
g1537
ag2314
asg14
I00
sg1537
g0
(g193
g2
Ntp2791
Rp2792
(dp2793
g14
I00
sg32
I01
sg197
g77
sg15
I00
sbsg15
I00
sg16
I40
sg17
g18
sg34
g2786
sg2314
g0
(g217
g2
Ntp2794
Rp2795
(dp2796
g14
I00
sg32
I01
sg197
I00
sg15
I00
sbsg35
S'TrackerGeometricDetESModule'
p2797
sbsS'_Process__name'
p2798
S'ExoDiPhoton'
p2799
sg2472
g2707
sS'_cloneToObjectDict'
p2800
(dp2801
I140058370016080
g0
(g7
g2
Ntp2802
Rp2803
(dp2804
g11
(lp2805
S'ComponentType'
p2806
ag2595
aS'parameters'
p2807
asg14
I00
sg15
I00
sg2807
g0
(g145
g2
Ntp2808
Rp2809
(dp2810
g14
I00
sg32
I01
sg15
I00
sg11
(lp2811
sbsg16
I40
sg2595
g0
(g193
g2
Ntp2812
Rp2813
(dp2814
g14
I00
sg32
I01
sg197
S'stripCPE'
p2815
sg15
I00
sbsg2806
g0
(g193
g2
Ntp2816
Rp2817
(dp2818
g14
I00
sg32
I01
sg197
S'SimpleStripCPE'
p2819
sg15
I00
sbsg17
g18
sg34
S'stripCPEESProducer'
p2820
sg35
S'StripCPEESProducer'
p2821
sbsI140058370236672
g612
sI140058368990352
g1899
sI140058370016208
g0
(g7
g2
Ntp2822
Rp2823
(dp2824
g11
(lp2825
g2806
ag2595
ag2807
asg14
I00
sg15
I01
sg2807
g0
(g145
g2
Ntp2826
Rp2827
(dp2828
g14
I00
sg32
I01
sS'maxChgOneMIP'
p2829
g0
(g660
g2
Ntp2830
Rp2831
(dp2832
g14
I00
sg32
I01
sg197
F6000.0
sg15
I00
sbsS'mLC_P2'
p2833
g0
(g660
g2
Ntp2834
Rp2835
(dp2836
g14
I00
sg32
I01
sg197
F0.3
sg15
I00
sbsS'mLC_P1'
p2837
g0
(g660
g2
Ntp2838
Rp2839
(dp2840
g14
I00
sg32
I01
sg197
F0.618
sg15
I00
sbsS'mLC_P0'
p2841
g0
(g660
g2
Ntp2842
Rp2843
(dp2844
g14
I00
sg32
I01
sg197
F-0.326
sg15
I00
sbsS'useLegacyError'
p2845
g0
(g217
g2
Ntp2846
Rp2847
(dp2848
g14
I00
sg32
I01
sg197
I00
sg15
I00
sbsS'mTIB_P1'
p2849
g0
(g660
g2
Ntp2850
Rp2851
(dp2852
g14
I00
sg32
I01
sg197
F0.202
sg15
I00
sbsS'mTEC_P1'
p2853
g0
(g660
g2
Ntp2854
Rp2855
(dp2856
g14
I00
sg32
I01
sg197
F0.471
sg15
I00
sbsS'mTEC_P0'
p2857
g0
(g660
g2
Ntp2858
Rp2859
(dp2860
g14
I00
sg32
I01
sg197
F-1.885
sg15
I00
sbsS'mTOB_P0'
p2861
g0
(g660
g2
Ntp2862
Rp2863
(dp2864
g14
I00
sg32
I01
sg197
F-1.026
sg15
I00
sbsS'mTOB_P1'
p2865
g0
(g660
g2
Ntp2866
Rp2867
(dp2868
g14
I00
sg32
I01
sg197
F0.253
sg15
I00
sbsS'mTIB_P0'
p2869
g0
(g660
g2
Ntp2870
Rp2871
(dp2872
g14
I00
sg32
I01
sg197
F-0.742
sg15
I00
sbsg11
(lp2873
g2829
ag2833
ag2837
ag2841
ag2845
ag2853
ag2857
ag2861
ag2865
ag2869
ag2849
aS'mTID_P0'
p2874
aS'mTID_P1'
p2875
asg2874
g0
(g660
g2
Ntp2876
Rp2877
(dp2878
g14
I00
sg32
I01
sg197
F-1.427
sg15
I00
sbsg2875
g0
(g660
g2
Ntp2879
Rp2880
(dp2881
g14
I00
sg32
I01
sg197
F0.433
sg15
I00
sbsg15
I00
sbsg16
I4
sg2595
g0
(g193
g2
Ntp2882
Rp2883
(dp2884
g14
I00
sg32
I01
sg197
S'StripCPEfromTrackAngle'
p2885
sg15
I00
sbsg2806
g0
(g193
g2
Ntp2886
Rp2887
(dp2888
g14
I00
sg32
I01
sg197
g2885
sg15
I00
sbsg17
S'/cvmfs/cms.cern.ch/slc6_amd64_gcc530/cms/cmssw/CMSSW_8_0_25/python/RecoLocalTracker/SiStripRecHitConverter/StripCPEfromTrackAngle_cfi.py'
p2889
sg34
S'StripCPEfromTrackAngleESProducer'
p2890
sg35
g2821
sbsI140058369582096
g2303
sI140058369676368
g618
sI140058369721488
g147
sI140058368990160
g1906
sI140058368988368
g1632
sI140058369938704
g1814
sI140058370313872
g2654
sI140058369803856
g538
sI140058369643984
g1507
sI140058369581264
g0
(g7
g2
Ntp2891
Rp2892
(dp2893
g11
(lp2894
sg14
I00
sg15
I00
sg16
I40
sg17
g18
sg34
S'CaloTowerTopologyEP'
p2895
sg35
g2895
sbsI140058368990224
g1546
sI140058369722128
g2611
sI140058370042896
g2526
sI140058370043728
g2311
sI140058369644816
g0
(g2353
g2
Ntp2896
Rp2897
(dp2898
g11
(lp2899
S'vertexCollection'
p2900
aS'maxd0'
p2901
aS'minimumNDOF'
p2902
aS'maxAbsZ'
p2903
asg14
I00
sg15
I00
sg2902
g0
(g1909
g2
Ntp2904
Rp2905
(dp2906
g14
I00
sg32
I01
sg197
I4
sg15
I00
sbsg16
I114
sg17
g1549
sg2900
g0
(g68
g2
Ntp2907
Rp2908
(dp2909
g14
I00
sg32
I01
sg15
I00
sg72
g125
sg74
g77
sg76
g77
sbsg2903
g0
(g660
g2
Ntp2910
Rp2911
(dp2912
g14
I00
sg32
I01
sg197
I24
sg15
I00
sbsg34
S'primaryVertexFilter'
p2913
sg2901
g0
(g660
g2
Ntp2914
Rp2915
(dp2916
g14
I00
sg32
I01
sg197
I2
sg15
I00
sbsg35
S'GoodVertexFilter'
p2917
sbsI140058369582864
g0
(g7
g2
Ntp2918
Rp2919
(dp2920
g11
(lp2921
sg14
I00
sg15
I00
sg16
I40
sg17
g18
sg34
S'EcalElectronicsMappingBuilder'
p2922
sg35
g2922
sbsI140058369724048
g241
sI140058369644368
g2508
sI140058370077136
g2016
sI140058370078608
g2780
sI140058370077968
g9
sI140058369583120
g2331
sI140058369781456
g1581
sI140058369755280
g316
sI140058368879696
g1684
sI140058370042064
g2742
sI140058370017552
g2591
sI140058369804496
g2548
sI140058370017680
g0
(g7
g2
Ntp2923
Rp2924
(dp2925
g11
(lp2926
sg14
I00
sg15
I00
sg16
I40
sg17
g18
sg34
S'sistripconn'
p2927
sg35
S'SiStripConnectivity'
p2928
sbsI140058370079696
g0
(g7
g2
Ntp2929
Rp2930
(dp2931
g11
(lp2932
sg14
I00
sg15
I00
sg16
I40
sg17
g18
sg34
S'HcalAlignmentEP'
p2933
sg35
g2933
sbsI140058369939920
g0
(g7
g2
Ntp2934
Rp2935
(dp2936
g11
(lp2937
S'file'
p2938
aS'dump'
p2939
asg14
I00
sg15
I00
sg2939
g0
(g19
g20
(lp2940
g77
atp2941
Rp2942
(dp2943
g14
I00
sg32
I00
sg15
I00
sg33
I1
sbsg16
I40
sg17
g18
sg2938
g0
(g193
g2
Ntp2944
Rp2945
(dp2946
g14
I00
sg32
I00
sg197
g77
sg15
I00
sbsg34
S'hcal_db_producer'
p2947
sg35
S'HcalDbProducer'
p2948
sbsI140058370042256
g0
(g7
g2
Ntp2949
Rp2950
(dp2951
g11
(lp2952
g2745
aS'compatibiltyWith11'
p2953
asg14
I00
sg15
I00
sg16
I40
sg17
g18
sg2745
g0
(g217
g2
Ntp2954
Rp2955
(dp2956
g14
I00
sg32
I00
sg197
I00
sg15
I00
sbsg2953
g0
(g217
g2
Ntp2957
Rp2958
(dp2959
g14
I00
sg32
I00
sg197
I01
sg15
I00
sbsg34
S'RPCGeometryESModule'
p2960
sg35
g2960
sbsI140058369583632
g1534
sI140058369677840
g52
sI140058369805456
g1452
sI140058368987216
g2355
sI140058370018064
g0
(g7
g2
Ntp2961
Rp2962
(dp2963
g11
(lp2964
sg14
I00
sg15
I00
sg16
I40
sg17
g18
sg34
S'CastorDbProducer'
p2965
sg35
g2965
sbsI140058369583952
g0
(g7
g2
Ntp2966
Rp2967
(dp2968
g11
(lp2969
g1537
asg14
I00
sg1537
g0
(g193
g2
Ntp2970
Rp2971
(dp2972
g14
I00
sg32
I01
sg197
g77
sg15
I00
sbsg15
I00
sg16
I40
sg17
g18
sg34
S'hcalDDDRecConstants'
p2973
sg35
S'HcalDDDRecConstantsESModule'
p2974
sbsI140058369778960
g2422
sI140058369940432
g2707
sI140058369940496
g2468
sI140058369643344
g0
(g7
g2
Ntp2975
Rp2976
(dp2977
g11
(lp2978
g1537
ag2314
ag1556
ag2315
asg14
I00
sg1537
g0
(g193
g2
Ntp2979
Rp2980
(dp2981
g14
I00
sg32
I01
sg197
g2487
sg15
I01
sbsg15
I01
sg2315
g0
(g193
g2
Ntp2982
Rp2983
(dp2984
g14
I00
sg32
I01
sg197
g2491
sg15
I01
sbsg17
S'/cvmfs/cms.cern.ch/slc6_amd64_gcc530/cms/cmssw/CMSSW_8_0_25/python/Geometry/DTGeometryBuilder/idealForDigiDtGeometryDB_cff.py'
p2985
sg16
I8
sg34
S'idealForDigiDTGeometry'
p2986
sg2314
g0
(g217
g2
Ntp2987
Rp2988
(dp2989
g14
I00
sg32
I01
sg197
I00
sg15
I00
sbsg1556
g0
(g217
g2
Ntp2990
Rp2991
(dp2992
g14
I00
sg32
I01
sg197
I00
sg15
I01
sbsg35
g2524
sbsI140058369780816
g464
sI140058369582416
g2369
sI140058369805520
g41
sI140058370018576
g1778
sI140058369939280
g0
(g7
g2
Ntp2993
Rp2994
(dp2995
g11
(lp2996
sg14
I00
sg15
I00
sg16
I40
sg17
g18
sg34
S'EcalLaserCorrectionService'
p2997
sg35
g2997
sbsI140058369753424
g2663
sI140058370043280
g2788
sI140058370080208
g1553
sI140058369804752
g132
sI140058369755920
g2258
sI140058369584144
g2481
sI140058369584848
g0
(g7
g2
Ntp2998
Rp2999
(dp3000
g11
(lp3001
g1537
asg14
I00
sg1537
g0
(g193
g2
Ntp3002
Rp3003
(dp3004
g14
I00
sg32
I01
sg197
g2491
sg15
I01
sbsg15
I01
sg16
I5
sg17
S'/cvmfs/cms.cern.ch/slc6_amd64_gcc530/cms/cmssw/CMSSW_8_0_25/python/Alignment/CommonAlignmentProducer/fakeForIdealAlignmentProducer_cfi.py'
p3005
sg34
S'fakeForIdealAlignment'
p3006
sg35
S'FakeAlignmentProducer'
p3007
sbsI140058370077520
g2543
sI140058369982224
g0
(g7
g2
Ntp3008
Rp3009
(dp3010
g11
(lp3011
g2382
aS'LorentzAngleDeconvMode'
p3012
aS'LorentzAnglePeakMode'
p3013
asg14
I00
sg15
I00
sg16
I40
sg17
g18
sg2382
g0
(g145
g2
Ntp3014
Rp3015
(dp3016
g14
I00
sg32
I01
sg15
I00
sg1511
g0
(g193
g2
Ntp3017
Rp3018
(dp3019
g14
I00
sg32
I00
sg197
g77
sg15
I00
sbsg1786
g0
(g193
g2
Ntp3020
Rp3021
(dp3022
g14
I00
sg32
I01
sg197
g2394
sg15
I00
sbsg11
(lp3023
g1786
ag1511
asbsg34
S'siStripLorentzAngleDepESProducer'
p3024
sg3013
g0
(g145
g2
Ntp3025
Rp3026
(dp3027
g14
I00
sg32
I01
sg15
I00
sg1511
g0
(g193
g2
Ntp3028
Rp3029
(dp3030
g14
I00
sg32
I00
sg197
g2402
sg15
I00
sbsg1786
g0
(g193
g2
Ntp3031
Rp3032
(dp3033
g14
I00
sg32
I01
sg197
S'SiStripLorentzAngleRcd'
p3034
sg15
I00
sbsg11
(lp3035
g1786
ag1511
asbsg35
S'SiStripLorentzAngleDepESProducer'
p3036
sg3012
g0
(g145
g2
Ntp3037
Rp3038
(dp3039
g14
I00
sg32
I01
sg15
I00
sg1511
g0
(g193
g2
Ntp3040
Rp3041
(dp3042
g14
I00
sg32
I00
sg197
g2414
sg15
I00
sbsg1786
g0
(g193
g2
Ntp3043
Rp3044
(dp3045
g14
I00
sg32
I01
sg197
g3034
sg15
I00
sbsg11
(lp3046
g1786
ag1511
asbsbsI140058370078352
g2021
sI140058369981328
g0
(g7
g2
Ntp3047
Rp3048
(dp3049
g11
(lp3050
S'printDebug'
p3051
ag1537
aS'APVGain'
p3052
aS'AutomaticNormalization'
p3053
asg14
I00
sg1537
g0
(g193
g2
Ntp3054
Rp3055
(dp3056
g14
I00
sg32
I01
sg197
g77
sg15
I00
sbsg15
I00
sg3053
g0
(g217
g2
Ntp3057
Rp3058
(dp3059
g14
I00
sg32
I01
sg197
I00
sg15
I00
sbsg16
I40
sg3051
g0
(g217
g2
Ntp3060
Rp3061
(dp3062
g14
I00
sg32
I00
sg197
I00
sg15
I00
sbsg17
g18
sg3052
g0
(g143
g20
(lp3063
g0
(g145
g2
Ntp3064
Rp3065
(dp3066
g14
I00
sg32
I01
sg15
I00
sS'Label'
p3067
g0
(g193
g2
Ntp3068
Rp3069
(dp3070
g14
I00
sg32
I00
sg197
g77
sg15
I00
sbsS'Record'
p3071
g0
(g193
g2
Ntp3072
Rp3073
(dp3074
g14
I00
sg32
I01
sg197
S'SiStripApvGainRcd'
p3075
sg15
I00
sbsS'NormalizationFactor'
p3076
g0
(g660
g2
Ntp3077
Rp3078
(dp3079
g14
I00
sg32
I00
sg197
F1.0
sg15
I00
sbsg11
(lp3080
g3071
ag3076
ag3067
asbag0
(g145
g2
Ntp3081
Rp3082
(dp3083
g14
I00
sg32
I01
sg15
I00
sg3067
g0
(g193
g2
Ntp3084
Rp3085
(dp3086
g14
I00
sg32
I00
sg197
g77
sg15
I00
sbsg3071
g0
(g193
g2
Ntp3087
Rp3088
(dp3089
g14
I00
sg32
I01
sg197
S'SiStripApvGain2Rcd'
p3090
sg15
I00
sbsg3076
g0
(g660
g2
Ntp3091
Rp3092
(dp3093
g14
I00
sg32
I00
sg197
F1.0
sg15
I00
sbsg11
(lp3094
g3071
ag3076
ag3067
asbatp3095
Rp3096
(dp3097
g14
I00
sg32
I01
sg15
I00
sg33
I1
sbsg34
S'siStripGainESProducer'
p3098
sg35
S'SiStripGainESProducer'
p3099
sbsI140058370079184
g0
(g7
g2
Ntp3100
Rp3101
(dp3102
g11
(lp3103
g1556
ag1557
asg14
I00
sg15
I01
sg16
I40
sg17
g18
sg1557
g0
(g145
g2
Ntp3104
Rp3105
(dp3106
g14
I00
sg32
I01
sg15
I00
sg1561
g0
(g1562
g2
Ntp3107
Rp3108
(dp3109
g14
I00
sg32
I01
sg197
I3
sg15
I00
sbsg1566
g0
(g1562
g2
Ntp3110
Rp3111
(dp3112
g14
I00
sg32
I01
sg197
I2
sg15
I00
sbsg11
(lp3113
g1561
ag1566
ag1571
asg1571
g0
(g193
g2
Ntp3114
Rp3115
(dp3116
g14
I00
sg32
I01
sg197
g1575
sg15
I00
sbsbsg34
S'HcalGeometryFromDBEP'
p3117
sg1556
g0
(g217
g2
Ntp3118
Rp3119
(dp3120
g14
I00
sg32
I01
sg197
I01
sg15
I01
sbsg35
g3117
sbsI140058370080720
g0
(g7
g2
Ntp3121
Rp3122
(dp3123
g11
(lp3124
S'Exclude'
p3125
ag1537
asg14
I00
sg1537
g0
(g193
g2
Ntp3126
Rp3127
(dp3128
g14
I00
sg32
I01
sg197
g77
sg15
I00
sbsg15
I00
sg16
I40
sg17
g18
sg34
S'hcalTopologyIdeal'
p3129
sg3125
g0
(g193
g2
Ntp3130
Rp3131
(dp3132
g14
I00
sg32
I00
sg197
g77
sg15
I00
sbsg35
S'HcalTopologyIdealEP'
p3133
sbsI140058370076752
g0
(g7
g2
Ntp3134
Rp3135
(dp3136
g11
(lp3137
sg14
I00
sg15
I00
sg16
I40
sg17
g18
sg34
S'GlobalTrackingGeometryESProducer'
p3138
sg35
g3138
sbsI140058370313680
g2513
sI140058370076816
g0
(g7
g2
Ntp3139
Rp3140
(dp3141
g11
(lp3142
sg14
I00
sg15
I00
sg16
I40
sg17
g18
sg34
S'TrackerRecoGeometryESProducer'
p3143
sg35
g3143
sbsI140058370040016
g0
(g7
g2
Ntp3144
Rp3145
(dp3146
g11
(lp3147
g1537
aS'PrintDebugOutput'
p3148
aS'ThresholdForReducedGranularity'
p3149
aS'UseEmptyRunInfo'
p3150
aS'ReduceGranularity'
p3151
ag1781
asg14
I00
sg1537
g0
(g193
g2
Ntp3152
Rp3153
(dp3154
g14
I00
sg32
I01
sg197
g77
sg15
I00
sbsg15
I01
sg16
I40
sg17
g18
sg3149
g0
(g660
g2
Ntp3155
Rp3156
(dp3157
g14
I00
sg32
I01
sg197
F0.3
sg15
I00
sbsg34
S'siStripQualityESProducer'
p3158
sg3150
g0
(g217
g2
Ntp3159
Rp3160
(dp3161
g14
I00
sg32
I01
sg197
I00
sg15
I00
sbsg3151
g0
(g217
g2
Ntp3162
Rp3163
(dp3164
g14
I00
sg32
I01
sg197
I00
sg15
I00
sbsg1781
g0
(g143
g20
(lp3165
g0
(g145
g2
Ntp3166
Rp3167
(dp3168
g14
I00
sg32
I01
sg15
I00
sg1786
g0
(g193
g2
Ntp3169
Rp3170
(dp3171
g14
I00
sg32
I01
sg197
S'SiStripDetVOffRcd'
p3172
sg15
I00
sbsg1791
g0
(g193
g2
Ntp3173
Rp3174
(dp3175
g14
I00
sg32
I01
sg197
g77
sg15
I00
sbsg11
(lp3176
g1786
ag1791
asbag0
(g145
g2
Ntp3177
Rp3178
(dp3179
g14
I00
sg32
I01
sg15
I00
sg1786
g0
(g193
g2
Ntp3180
Rp3181
(dp3182
g14
I00
sg32
I01
sg197
S'SiStripDetCablingRcd'
p3183
sg15
I00
sbsg1791
g0
(g193
g2
Ntp3184
Rp3185
(dp3186
g14
I00
sg32
I01
sg197
g77
sg15
I00
sbsg11
(lp3187
g1786
ag1791
asbag0
(g145
g2
Ntp3188
Rp3189
(dp3190
g14
I00
sg32
I01
sg15
I00
sg1786
g0
(g193
g2
Ntp3191
Rp3192
(dp3193
g14
I00
sg32
I01
sg197
S'RunInfoRcd'
p3194
sg15
I00
sbsg1791
g0
(g193
g2
Ntp3195
Rp3196
(dp3197
g14
I00
sg32
I01
sg197
g77
sg15
I00
sbsg11
(lp3198
g1786
ag1791
asbag0
(g145
g2
Ntp3199
Rp3200
(dp3201
g14
I00
sg32
I01
sg15
I00
sg1786
g0
(g193
g2
Ntp3202
Rp3203
(dp3204
g14
I00
sg32
I01
sg197
S'SiStripBadChannelRcd'
p3205
sg15
I00
sbsg1791
g0
(g193
g2
Ntp3206
Rp3207
(dp3208
g14
I00
sg32
I01
sg197
g77
sg15
I00
sbsg11
(lp3209
g1786
ag1791
asbag0
(g145
g2
Ntp3210
Rp3211
(dp3212
g14
I00
sg32
I01
sg15
I00
sg1786
g0
(g193
g2
Ntp3213
Rp3214
(dp3215
g14
I00
sg32
I01
sg197
S'SiStripBadFiberRcd'
p3216
sg15
I00
sbsg1791
g0
(g193
g2
Ntp3217
Rp3218
(dp3219
g14
I00
sg32
I01
sg197
g77
sg15
I00
sbsg11
(lp3220
g1786
ag1791
asbag0
(g145
g2
Ntp3221
Rp3222
(dp3223
g14
I00
sg32
I01
sg15
I00
sg1786
g0
(g193
g2
Ntp3224
Rp3225
(dp3226
g14
I00
sg32
I01
sg197
S'SiStripBadModuleRcd'
p3227
sg15
I00
sbsg1791
g0
(g193
g2
Ntp3228
Rp3229
(dp3230
g14
I00
sg32
I01
sg197
g77
sg15
I00
sbsg11
(lp3231
g1786
ag1791
asbag0
(g145
g2
Ntp3232
Rp3233
(dp3234
g14
I00
sg32
I01
sg15
I00
sg1786
g0
(g193
g2
Ntp3235
Rp3236
(dp3237
g14
I00
sg32
I01
sg197
S'SiStripBadStripRcd'
p3238
sg15
I00
sbsg1791
g0
(g193
g2
Ntp3239
Rp3240
(dp3241
g14
I00
sg32
I01
sg197
g77
sg15
I00
sbsg11
(lp3242
g1786
ag1791
asbatp3243
Rp3244
(dp3245
g14
I00
sg32
I01
sg15
I00
sg33
I1
sbsg35
S'SiStripQualityESProducer'
p3246
sg3148
g0
(g217
g2
Ntp3247
Rp3248
(dp3249
g14
I00
sg32
I01
sg197
I00
sg15
I00
sbsbsI140058370076944
g0
(g7
g2
Ntp3250
Rp3251
(dp3252
g11
(lp3253
g1537
asg14
I00
sg1537
g0
(g193
g2
Ntp3254
Rp3255
(dp3256
g14
I00
sg32
I01
sg197
g77
sg15
I00
sbsg15
I00
sg16
I40
sg17
g18
sg34
S'trackerTopology'
p3257
sg35
S'TrackerTopologyEP'
p3258
sbsI140058369585104
g0
(g7
g2
Ntp3259
Rp3260
(dp3261
g11
(lp3262
g1537
ag2745
ag2746
ag2747
ag2315
ag2748
ag2749
ag2750
ag1556
asg14
I00
sg1537
g0
(g193
g2
Ntp3263
Rp3264
(dp3265
g14
I00
sg32
I01
sg197
g2487
sg15
I01
sbsg15
I01
sg2746
g0
(g217
g2
Ntp3266
Rp3267
(dp3268
g14
I00
sg32
I00
sg197
I00
sg15
I00
sbsg17
S'/cvmfs/cms.cern.ch/slc6_amd64_gcc530/cms/cmssw/CMSSW_8_0_25/python/Geometry/CSCGeometryBuilder/idealForDigiCscGeometryDB_cff.py'
p3269
sg2747
g0
(g217
g2
Ntp3270
Rp3271
(dp3272
g14
I00
sg32
I01
sg197
I01
sg15
I00
sbsg2315
g0
(g193
g2
Ntp3273
Rp3274
(dp3275
g14
I00
sg32
I01
sg197
g2491
sg15
I01
sbsg2748
g0
(g217
g2
Ntp3276
Rp3277
(dp3278
g14
I00
sg32
I01
sg197
I00
sg15
I00
sbsg2745
g0
(g217
g2
Ntp3279
Rp3280
(dp3281
g14
I00
sg32
I01
sg197
I00
sg15
I00
sbsg16
I8
sg2750
g0
(g217
g2
Ntp3282
Rp3283
(dp3284
g14
I00
sg32
I01
sg197
I00
sg15
I00
sbsg34
S'idealForDigiCSCGeometry'
p3285
sg2749
g0
(g217
g2
Ntp3286
Rp3287
(dp3288
g14
I00
sg32
I01
sg197
I01
sg15
I00
sbsg1556
g0
(g217
g2
Ntp3289
Rp3290
(dp3291
g14
I00
sg32
I01
sg197
I00
sg15
I01
sbsg35
g2740
sbsI140058370078480
g0
(g7
g2
Ntp3292
Rp3293
(dp3294
g11
(lp3295
g1556
asg14
I00
sg15
I01
sg16
I40
sg17
g18
sg34
S'EcalPreshowerGeometryFromDBEP'
p3296
sg1556
g0
(g217
g2
Ntp3297
Rp3298
(dp3299
g14
I00
sg32
I01
sg197
I01
sg15
I01
sbsg35
g3296
sbsI140058370015760
g2379
sI140058369778320
g390
sI140058369581776
g0
(g7
g2
Ntp3300
Rp3301
(dp3302
g11
(lp3303
g1556
asg14
I00
sg15
I00
sg16
I40
sg17
g18
sg34
S'ZdcGeometryFromDBEP'
p3304
sg1556
g0
(g217
g2
Ntp3305
Rp3306
(dp3307
g14
I00
sg32
I01
sg197
I00
sg15
I00
sbsg35
g3304
sbssg3098
g3048
sg2960
g2950
sg2927
g2924
sg3304
g3301
sg3143
g3140
sg3024
g3009
sg2895
g2892
sg2820
g2803
sS'_Process__filters'
p3308
(dp3309
g2913
g2897
sg1956
g2355
ssg3257
g3251
sg3117
g3101
sg2465
g2468
sg2922
g2919
sg2890
g2823
sS'_Process__aliases'
p3310
(dp3311
sg3138
g3135
sg2997
g2994
sg362
g316
sg2933
g2930
sg3296
g3293
sg2973
g2967
sg2965
g2962
sg2661
g2663
sg3285
g3260
sS'_Process__subProcesses'
p3312
(lp3313
sg2947
g2935
sg510
g464
sg1682
g1684
sg3129
g3122
sS'_Process__schedule'
p3314
Nsg3158
g3145
sg2913
g2897
sg2986
g2976
sg38
g41
sS'_Process__modifiers'
p3315
(tsg2609
g2611
sS'_Process__esproducers'
p3316
(dp3317
g6
g9
sg2524
g2526
sg2890
g2823
sg2301
g2303
sg2541
g2543
sg3138
g3135
sg1505
g1507
sg2309
g2311
sg2506
g2508
sg2589
g2591
sg3304
g3301
sg2933
g2930
sg3296
g3293
sg2965
g2962
sg2973
g2967
sg2740
g2742
sg2778
g2780
sg2786
g2788
sg2367
g2369
sg3285
g3260
sg1551
g1553
sg2377
g2379
sg2947
g2935
sg3098
g3048
sg2960
g2950
sg2927
g2924
sg2997
g2994
sg2922
g2919
sg3158
g3145
sg2986
g2976
sg3129
g3122
sg3024
g3009
sg2895
g2892
sg1776
g1778
sg2820
g2803
sg1532
g1534
sg2014
g2016
sg3257
g3251
sg3143
g3140
sg2019
g2021
sg3006
g2999
sg2479
g2481
sg3117
g3101
ssS'_Process__partialschedules'
p3318
(dp3319
sg3006
g2999
sb.